---
triple:          'x86_64-apple-darwin'
binary-path:     mnist_train_nn
relocations:
  - { offsetInCU: 0x13253, offset: 0x13253, size: 0x8, addend: 0x0, symName: __ZNSt3__17advanceB8ue170006IPNS_6vectorIfNS_9allocatorIfEEEEllvEEvRT_T0_, symObjAddr: 0x6840, symBinAddr: 0x100007880, symSize: 0x30 }
  - { offsetInCU: 0x134D3, offset: 0x134D3, size: 0x8, addend: 0x0, symName: __ZNSt3__17advanceB8ue170006INS_16reverse_iteratorIPNS_6vectorIfNS_9allocatorIfEEEEEEllvEEvRT_T0_, symObjAddr: 0x6C00, symBinAddr: 0x100007C40, symSize: 0x30 }
  - { offsetInCU: 0x1372E, offset: 0x1372E, size: 0x8, addend: 0x0, symName: __ZNSt3__124__put_character_sequenceB8ue170006IcNS_11char_traitsIcEEEERNS_13basic_ostreamIT_T0_EES7_PKS4_m, symObjAddr: 0x8180, symBinAddr: 0x1000091C0, symSize: 0x1F0 }
  - { offsetInCU: 0x145C4, offset: 0x145C4, size: 0x8, addend: 0x0, symName: __ZNSt3__19__shuffleB8ue170006INS_17_ClassicAlgPolicyENS_11__wrap_iterIPNS_6vectorIfNS_9allocatorIfEEEEEES8_RNS_23mersenne_twister_engineIjLm32ELm624ELm397ELm31ELj2567483615ELm11ELj4294967295ELm7ELj2636928640ELm15ELj4022730752ELm18ELj1812433253EEEEET0_SC_T1_OT2_, symObjAddr: 0x8BD0, symBinAddr: 0x100009C10, symSize: 0x120 }
  - { offsetInCU: 0x14C68, offset: 0x14C68, size: 0x8, addend: 0x0, symName: __ZNSt3__19__shuffleB8ue170006INS_17_ClassicAlgPolicyENS_11__wrap_iterIPiEES4_RNS_23mersenne_twister_engineIjLm32ELm624ELm397ELm31ELj2567483615ELm11ELj4294967295ELm7ELj2636928640ELm15ELj4022730752ELm18ELj1812433253EEEEET0_S8_T1_OT2_, symObjAddr: 0x9860, symBinAddr: 0x10000A8A0, symSize: 0x120 }
  - { offsetInCU: 0x15E3C, offset: 0x15E3C, size: 0x8, addend: 0x0, symName: __ZNSt3__1lsB8ue170006INS_11char_traitsIcEEEERNS_13basic_ostreamIcT_EES6_PKc, symObjAddr: 0xD90, symBinAddr: 0x100001DD0, symSize: 0x40 }
  - { offsetInCU: 0x15F67, offset: 0x15F67, size: 0x8, addend: 0x0, symName: __ZNSt3__17shuffleB8ue170006INS_11__wrap_iterIPNS_6vectorIfNS_9allocatorIfEEEEEERNS_23mersenne_twister_engineIjLm32ELm624ELm397ELm31ELj2567483615ELm11ELj4294967295ELm7ELj2636928640ELm15ELj4022730752ELm18ELj1812433253EEEEEvT_SB_OT0_, symObjAddr: 0xE70, symBinAddr: 0x100001EB0, symSize: 0x40 }
  - { offsetInCU: 0x15FBD, offset: 0x15FBD, size: 0x8, addend: 0x0, symName: __ZNSt3__17shuffleB8ue170006INS_11__wrap_iterIPiEERNS_23mersenne_twister_engineIjLm32ELm624ELm397ELm31ELj2567483615ELm11ELj4294967295ELm7ELj2636928640ELm15ELj4022730752ELm18ELj1812433253EEEEEvT_S7_OT0_, symObjAddr: 0xF10, symBinAddr: 0x100001F50, symSize: 0x40 }
  - { offsetInCU: 0x16013, offset: 0x16013, size: 0x8, addend: 0x0, symName: __ZNSt3__18distanceB8ue170006INS_11__wrap_iterIPfEEEENS_15iterator_traitsIT_E15difference_typeES5_S5_, symObjAddr: 0x1060, symBinAddr: 0x1000020A0, symSize: 0x40 }
  - { offsetInCU: 0x16056, offset: 0x16056, size: 0x8, addend: 0x0, symName: __ZNSt3__111max_elementB8ue170006INS_11__wrap_iterIPfEEEET_S4_S4_, symObjAddr: 0x10D0, symBinAddr: 0x100002110, symSize: 0x40 }
  - { offsetInCU: 0x16099, offset: 0x16099, size: 0x8, addend: 0x0, symName: __ZNSt3__14endlB8ue170006IcNS_11char_traitsIcEEEERNS_13basic_ostreamIT_T0_EES7_, symObjAddr: 0x1160, symBinAddr: 0x1000021A0, symSize: 0x50 }
  - { offsetInCU: 0x16ED6, offset: 0x16ED6, size: 0x8, addend: 0x0, symName: __ZNSt3__17getlineB8ue170006IcNS_11char_traitsIcEENS_9allocatorIcEEEERNS_13basic_istreamIT_T0_EES9_RNS_12basic_stringIS6_S7_T1_EE, symObjAddr: 0x1390, symBinAddr: 0x1000023D0, symSize: 0x50 }
  - { offsetInCU: 0x17498, offset: 0x17498, size: 0x8, addend: 0x0, symName: __ZNSt3__17getlineB8ue170006IcNS_11char_traitsIcEENS_9allocatorIcEEEERNS_13basic_istreamIT_T0_EES9_RNS_12basic_stringIS6_S7_T1_EES6_, symObjAddr: 0x1510, symBinAddr: 0x100002550, symSize: 0x220 }
  - { offsetInCU: 0x1756C, offset: 0x1756C, size: 0x8, addend: 0x0, symName: __ZNSt3__118__constexpr_strlenB8ue170006EPKc, symObjAddr: 0x1CD0, symBinAddr: 0x100002D10, symSize: 0x20 }
  - { offsetInCU: 0x17598, offset: 0x17598, size: 0x8, addend: 0x0, symName: __ZNSt3__122__make_exception_guardB8ue170006INS_6vectorIfNS_9allocatorIfEEE16__destroy_vectorEEENS_28__exception_guard_exceptionsIT_EES7_, symObjAddr: 0x1DF0, symBinAddr: 0x100002E30, symSize: 0x40 }
  - { offsetInCU: 0x175CD, offset: 0x175CD, size: 0x8, addend: 0x0, symName: __ZNSt3__119__allocate_at_leastB8ue170006INS_9allocatorIfEEEEDaRT_m, symObjAddr: 0x21A0, symBinAddr: 0x1000031E0, symSize: 0x40 }
  - { offsetInCU: 0x17610, offset: 0x17610, size: 0x8, addend: 0x0, symName: __ZNSt3__13minB8ue170006ImEERKT_S3_S3_, symObjAddr: 0x22D0, symBinAddr: 0x100003310, symSize: 0x30 }
  - { offsetInCU: 0x1783D, offset: 0x1783D, size: 0x8, addend: 0x0, symName: __ZNSt3__13minB8ue170006ImNS_6__lessIvvEEEERKT_S5_S5_T0_, symObjAddr: 0x2350, symBinAddr: 0x100003390, symSize: 0x50 }
  - { offsetInCU: 0x1790D, offset: 0x1790D, size: 0x8, addend: 0x0, symName: __ZNSt3__120__throw_length_errorB8ue170006EPKc, symObjAddr: 0x2430, symBinAddr: 0x100003470, symSize: 0x70 }
  - { offsetInCU: 0x17937, offset: 0x17937, size: 0x8, addend: 0x0, symName: __ZNSt3__117allocate_at_leastB8ue170006INS_9allocatorIfEEEENS_17allocation_resultINS_16allocator_traitsIT_E7pointerEEERS5_m, symObjAddr: 0x2510, symBinAddr: 0x100003550, symSize: 0x40 }
  - { offsetInCU: 0x1797A, offset: 0x1797A, size: 0x8, addend: 0x0, symName: __ZNSt3__117__libcpp_allocateB8ue170006Emm, symObjAddr: 0x2620, symBinAddr: 0x100003660, symSize: 0x60 }
  - { offsetInCU: 0x179D4, offset: 0x179D4, size: 0x8, addend: 0x0, symName: __ZNSt3__124__is_overaligned_for_newB8ue170006Em, symObjAddr: 0x2680, symBinAddr: 0x1000036C0, symSize: 0x20 }
  - { offsetInCU: 0x17A02, offset: 0x17A02, size: 0x8, addend: 0x0, symName: __ZNSt3__121__libcpp_operator_newB8ue170006IJmSt11align_val_tEEEPvDpT_, symObjAddr: 0x26A0, symBinAddr: 0x1000036E0, symSize: 0x30 }
  - { offsetInCU: 0x17A4F, offset: 0x17A4F, size: 0x8, addend: 0x0, symName: __ZNSt3__121__libcpp_operator_newB8ue170006IJmEEEPvDpT_, symObjAddr: 0x26D0, symBinAddr: 0x100003710, symSize: 0x20 }
  - { offsetInCU: 0x17A88, offset: 0x17A88, size: 0x8, addend: 0x0, symName: __ZNSt3__112__to_addressB8ue170006IfEEPT_S2_, symObjAddr: 0x27C0, symBinAddr: 0x100003800, symSize: 0x10 }
  - { offsetInCU: 0x17AE2, offset: 0x17AE2, size: 0x8, addend: 0x0, symName: __ZNSt3__112construct_atB8ue170006IfJEPfEEPT_S3_DpOT0_, symObjAddr: 0x28D0, symBinAddr: 0x100003910, symSize: 0x20 }
  - { offsetInCU: 0x17B3E, offset: 0x17B3E, size: 0x8, addend: 0x0, symName: __ZNSt3__110destroy_atB8ue170006IfLi0EEEvPT_, symObjAddr: 0x2B70, symBinAddr: 0x100003BB0, symSize: 0x20 }
  - { offsetInCU: 0x17B75, offset: 0x17B75, size: 0x8, addend: 0x0, symName: __ZNSt3__112__destroy_atB8ue170006IfLi0EEEvPT_, symObjAddr: 0x2B90, symBinAddr: 0x100003BD0, symSize: 0x10 }
  - { offsetInCU: 0x17BAC, offset: 0x17BAC, size: 0x8, addend: 0x0, symName: __ZNSt3__119__libcpp_deallocateB8ue170006EPvmm, symObjAddr: 0x2C00, symBinAddr: 0x100003C40, symSize: 0x60 }
  - { offsetInCU: 0x17C11, offset: 0x17C11, size: 0x8, addend: 0x0, symName: __ZNSt3__127__do_deallocate_handle_sizeB8ue170006IJSt11align_val_tEEEvPvmDpT_, symObjAddr: 0x2C60, symBinAddr: 0x100003CA0, symSize: 0x30 }
  - { offsetInCU: 0x17C64, offset: 0x17C64, size: 0x8, addend: 0x0, symName: __ZNSt3__127__do_deallocate_handle_sizeB8ue170006IJEEEvPvmDpT_, symObjAddr: 0x2C90, symBinAddr: 0x100003CD0, symSize: 0x20 }
  - { offsetInCU: 0x17CA2, offset: 0x17CA2, size: 0x8, addend: 0x0, symName: __ZNSt3__124__libcpp_operator_deleteB8ue170006IJPvSt11align_val_tEEEvDpT_, symObjAddr: 0x2CB0, symBinAddr: 0x100003CF0, symSize: 0x30 }
  - { offsetInCU: 0x17CEB, offset: 0x17CEB, size: 0x8, addend: 0x0, symName: __ZNSt3__124__libcpp_operator_deleteB8ue170006IJPvEEEvDpT_, symObjAddr: 0x2CE0, symBinAddr: 0x100003D20, symSize: 0x20 }
  - { offsetInCU: 0x17D20, offset: 0x17D20, size: 0x8, addend: 0x0, symName: __ZNSt3__110__distanceB8ue170006INS_11__wrap_iterIPfEEEENS_15iterator_traitsIT_E15difference_typeES5_S5_NS_26random_access_iterator_tagE, symObjAddr: 0x3100, symBinAddr: 0x100004140, symSize: 0x30 }
  - { offsetInCU: 0x17D6D, offset: 0x17D6D, size: 0x8, addend: 0x0, symName: __ZNSt3__1miB8ue170006IPfS1_EEDTmicldtfp_4baseEcldtfp0_4baseEERKNS_11__wrap_iterIT_EERKNS3_IT0_EE, symObjAddr: 0x3130, symBinAddr: 0x100004170, symSize: 0x40 }
  - { offsetInCU: 0x17DB9, offset: 0x17DB9, size: 0x8, addend: 0x0, symName: __ZNSt3__111max_elementB8ue170006INS_11__wrap_iterIPfEENS_6__lessIvvEEEET_S6_S6_T0_, symObjAddr: 0x3210, symBinAddr: 0x100004250, symSize: 0x40 }
  - { offsetInCU: 0x17E13, offset: 0x17E13, size: 0x8, addend: 0x0, symName: __ZNSt3__113__max_elementB8ue170006IRNS_6__lessIvvEENS_11__wrap_iterIPfEEEET0_S7_S7_T_, symObjAddr: 0x3250, symBinAddr: 0x100004290, symSize: 0xC0 }
  - { offsetInCU: 0x17E89, offset: 0x17E89, size: 0x8, addend: 0x0, symName: __ZNSt3__1neB8ue170006IPfEEbRKNS_11__wrap_iterIT_EES6_, symObjAddr: 0x3310, symBinAddr: 0x100004350, symSize: 0x30 }
  - { offsetInCU: 0x17ECC, offset: 0x17ECC, size: 0x8, addend: 0x0, symName: __ZNSt3__1eqB8ue170006IPfEEbRKNS_11__wrap_iterIT_EES6_, symObjAddr: 0x33B0, symBinAddr: 0x1000043F0, symSize: 0x40 }
  - { offsetInCU: 0x17F0F, offset: 0x17F0F, size: 0x8, addend: 0x0, symName: __ZNSt3__112__to_addressB8ue170006INS_6vectorINS1_IfNS_9allocatorIfEEEENS2_IS4_EEEEEEPT_S8_, symObjAddr: 0x3790, symBinAddr: 0x1000047D0, symSize: 0x10 }
  - { offsetInCU: 0x17F44, offset: 0x17F44, size: 0x8, addend: 0x0, symName: __ZNSt3__110destroy_atB8ue170006INS_6vectorINS1_IfNS_9allocatorIfEEEENS2_IS4_EEEELi0EEEvPT_, symObjAddr: 0x37A0, symBinAddr: 0x1000047E0, symSize: 0x20 }
  - { offsetInCU: 0x17F7B, offset: 0x17F7B, size: 0x8, addend: 0x0, symName: __ZNSt3__112__destroy_atB8ue170006INS_6vectorINS1_IfNS_9allocatorIfEEEENS2_IS4_EEEELi0EEEvPT_, symObjAddr: 0x37C0, symBinAddr: 0x100004800, symSize: 0x20 }
  - { offsetInCU: 0x17FB2, offset: 0x17FB2, size: 0x8, addend: 0x0, symName: __ZNSt3__112__to_addressB8ue170006INS_6vectorIfNS_9allocatorIfEEEEEEPT_S6_, symObjAddr: 0x3C30, symBinAddr: 0x100004C70, symSize: 0x10 }
  - { offsetInCU: 0x17FE7, offset: 0x17FE7, size: 0x8, addend: 0x0, symName: __ZNSt3__110destroy_atB8ue170006INS_6vectorIfNS_9allocatorIfEEEELi0EEEvPT_, symObjAddr: 0x3C40, symBinAddr: 0x100004C80, symSize: 0x20 }
  - { offsetInCU: 0x1801E, offset: 0x1801E, size: 0x8, addend: 0x0, symName: __ZNSt3__112__destroy_atB8ue170006INS_6vectorIfNS_9allocatorIfEEEELi0EEEvPT_, symObjAddr: 0x3C60, symBinAddr: 0x100004CA0, symSize: 0x20 }
  - { offsetInCU: 0x18055, offset: 0x18055, size: 0x8, addend: 0x0, symName: __ZNSt3__112__to_addressB8ue170006IiEEPT_S2_, symObjAddr: 0x40C0, symBinAddr: 0x100005100, symSize: 0x10 }
  - { offsetInCU: 0x1808A, offset: 0x1808A, size: 0x8, addend: 0x0, symName: __ZNSt3__110destroy_atB8ue170006IiLi0EEEvPT_, symObjAddr: 0x40D0, symBinAddr: 0x100005110, symSize: 0x20 }
  - { offsetInCU: 0x180C1, offset: 0x180C1, size: 0x8, addend: 0x0, symName: __ZNSt3__112__destroy_atB8ue170006IiLi0EEEvPT_, symObjAddr: 0x40F0, symBinAddr: 0x100005130, symSize: 0x10 }
  - { offsetInCU: 0x1811D, offset: 0x1811D, size: 0x8, addend: 0x0, symName: __ZNSt3__112construct_atB8ue170006IiJiEPiEEPT_S3_DpOT0_, symObjAddr: 0x4560, symBinAddr: 0x1000055A0, symSize: 0x30 }
  - { offsetInCU: 0x1818D, offset: 0x1818D, size: 0x8, addend: 0x0, symName: __ZNSt3__13maxB8ue170006ImEERKT_S3_S3_, symObjAddr: 0x4850, symBinAddr: 0x100005890, symSize: 0x30 }
  - { offsetInCU: 0x181D0, offset: 0x181D0, size: 0x8, addend: 0x0, symName: __ZNSt3__13maxB8ue170006ImNS_6__lessIvvEEEERKT_S5_S5_T0_, symObjAddr: 0x48F0, symBinAddr: 0x100005930, symSize: 0x50 }
  - { offsetInCU: 0x1822A, offset: 0x1822A, size: 0x8, addend: 0x0, symName: __ZNSt3__119__allocate_at_leastB8ue170006INS_9allocatorIiEEEEDaRT_m, symObjAddr: 0x4A40, symBinAddr: 0x100005A80, symSize: 0x40 }
  - { offsetInCU: 0x1826D, offset: 0x1826D, size: 0x8, addend: 0x0, symName: __ZNSt3__117allocate_at_leastB8ue170006INS_9allocatorIiEEEENS_17allocation_resultINS_16allocator_traitsIT_E7pointerEEERS5_m, symObjAddr: 0x4B20, symBinAddr: 0x100005B60, symSize: 0x40 }
  - { offsetInCU: 0x182B0, offset: 0x182B0, size: 0x8, addend: 0x0, symName: __ZNSt3__142__uninitialized_allocator_move_if_noexceptB8ue170006INS_9allocatorIiEENS_16reverse_iteratorIPiEES5_ivEET1_RT_T0_S9_S6_, symObjAddr: 0x4C50, symBinAddr: 0x100005C90, symSize: 0x70 }
  - { offsetInCU: 0x1832C, offset: 0x1832C, size: 0x8, addend: 0x0, symName: __ZNSt3__14swapB8ue170006IPiEENS_9enable_ifIXaasr21is_move_constructibleIT_EE5valuesr18is_move_assignableIS3_EE5valueEvE4typeERS3_S6_, symObjAddr: 0x4D10, symBinAddr: 0x100005D50, symSize: 0x40 }
  - { offsetInCU: 0x1837D, offset: 0x1837D, size: 0x8, addend: 0x0, symName: __ZNSt3__14moveB8ue170006INS_16reverse_iteratorIPiEES3_EET0_T_S5_S4_, symObjAddr: 0x4E00, symBinAddr: 0x100005E40, symSize: 0x80 }
  - { offsetInCU: 0x183D7, offset: 0x183D7, size: 0x8, addend: 0x0, symName: __ZNSt3__16__moveB8ue170006INS_17_ClassicAlgPolicyENS_16reverse_iteratorIPiEES4_S4_EENS_4pairIT0_T2_EES6_T1_S7_, symObjAddr: 0x4E80, symBinAddr: 0x100005EC0, symSize: 0x90 }
  - { offsetInCU: 0x18443, offset: 0x18443, size: 0x8, addend: 0x0, symName: __ZNSt3__123__dispatch_copy_or_moveB8ue170006INS_17_ClassicAlgPolicyENS_11__move_loopIS1_EENS_14__move_trivialENS_16reverse_iteratorIPiEES7_S7_EENS_4pairIT2_T4_EES9_T3_SA_, symObjAddr: 0x4F10, symBinAddr: 0x100005F50, symSize: 0x90 }
  - { offsetInCU: 0x184C1, offset: 0x184C1, size: 0x8, addend: 0x0, symName: __ZNSt3__121__unwrap_and_dispatchB8ue170006INS_10__overloadINS_11__move_loopINS_17_ClassicAlgPolicyEEENS_14__move_trivialEEENS_16reverse_iteratorIPiEES9_S9_Li0EEENS_4pairIT0_T2_EESB_T1_SC_, symObjAddr: 0x4FA0, symBinAddr: 0x100005FE0, symSize: 0x210 }
  - { offsetInCU: 0x18550, offset: 0x18550, size: 0x8, addend: 0x0, symName: __ZNSt3__114__unwrap_rangeB8ue170006INS_16reverse_iteratorIPiEES3_EEDaT_T0_, symObjAddr: 0x51B0, symBinAddr: 0x1000061F0, symSize: 0x60 }
  - { offsetInCU: 0x18757, offset: 0x18757, size: 0x8, addend: 0x0, symName: __ZNSt3__113__unwrap_iterB8ue170006INS_16reverse_iteratorIPiEENS_18__unwrap_iter_implIS3_Lb0EEELi0EEEDTclsrT0_8__unwrapclsr3stdE7declvalIT_EEEES7_, symObjAddr: 0x52B0, symBinAddr: 0x1000062F0, symSize: 0x40 }
  - { offsetInCU: 0x1879B, offset: 0x1879B, size: 0x8, addend: 0x0, symName: __ZNSt3__19make_pairB8ue170006INS_16reverse_iteratorIPiEES3_EENS_4pairINS_18__unwrap_ref_decayIT_E4typeENS5_IT0_E4typeEEEOS6_OS9_, symObjAddr: 0x52F0, symBinAddr: 0x100006330, symSize: 0x30 }
  - { offsetInCU: 0x187EA, offset: 0x187EA, size: 0x8, addend: 0x0, symName: __ZNSt3__114__rewrap_rangeB8ue170006INS_16reverse_iteratorIPiEES3_S3_EET0_S4_T1_, symObjAddr: 0x5320, symBinAddr: 0x100006360, symSize: 0x60 }
  - { offsetInCU: 0x1883F, offset: 0x1883F, size: 0x8, addend: 0x0, symName: __ZNSt3__113__rewrap_iterB8ue170006INS_16reverse_iteratorIPiEES3_NS_18__unwrap_iter_implIS3_Lb0EEEEET_S6_T0_, symObjAddr: 0x5380, symBinAddr: 0x1000063C0, symSize: 0x70 }
  - { offsetInCU: 0x188E4, offset: 0x188E4, size: 0x8, addend: 0x0, symName: __ZNSt3__1neB8ue170006IPiS1_EEbRKNS_16reverse_iteratorIT_EERKNS2_IT0_EE, symObjAddr: 0x54F0, symBinAddr: 0x100006530, symSize: 0x40 }
  - { offsetInCU: 0x18AD0, offset: 0x18AD0, size: 0x8, addend: 0x0, symName: __ZNSt3__112construct_atB8ue170006INS_6vectorIfNS_9allocatorIfEEEEJS4_EPS4_EEPT_S7_DpOT0_, symObjAddr: 0x5AB0, symBinAddr: 0x100006AF0, symSize: 0x40 }
  - { offsetInCU: 0x18B40, offset: 0x18B40, size: 0x8, addend: 0x0, symName: __ZNSt3__119__allocate_at_leastB8ue170006INS_9allocatorINS_6vectorIfNS1_IfEEEEEEEEDaRT_m, symObjAddr: 0x60A0, symBinAddr: 0x1000070E0, symSize: 0x40 }
  - { offsetInCU: 0x18B83, offset: 0x18B83, size: 0x8, addend: 0x0, symName: __ZNSt3__117allocate_at_leastB8ue170006INS_9allocatorINS_6vectorIfNS1_IfEEEEEEEENS_17allocation_resultINS_16allocator_traitsIT_E7pointerEEERS8_m, symObjAddr: 0x6180, symBinAddr: 0x1000071C0, symSize: 0x40 }
  - { offsetInCU: 0x18BC6, offset: 0x18BC6, size: 0x8, addend: 0x0, symName: __ZNSt3__142__uninitialized_allocator_move_if_noexceptB8ue170006INS_9allocatorINS_6vectorIfNS1_IfEEEEEENS_16reverse_iteratorIPS4_EES8_S8_EET2_RT_T0_T1_S9_, symObjAddr: 0x62B0, symBinAddr: 0x1000072F0, symSize: 0x180 }
  - { offsetInCU: 0x18C65, offset: 0x18C65, size: 0x8, addend: 0x0, symName: __ZNSt3__14swapB8ue170006IPNS_6vectorIfNS_9allocatorIfEEEEEENS_9enable_ifIXaasr21is_move_constructibleIT_EE5valuesr18is_move_assignableIS7_EE5valueEvE4typeERS7_SA_, symObjAddr: 0x6480, symBinAddr: 0x1000074C0, symSize: 0x40 }
  - { offsetInCU: 0x18CB6, offset: 0x18CB6, size: 0x8, addend: 0x0, symName: __ZNSt3__122__make_exception_guardB8ue170006INS_29_AllocatorDestroyRangeReverseINS_9allocatorINS_6vectorIfNS2_IfEEEEEENS_16reverse_iteratorIPS5_EEEEEENS_28__exception_guard_exceptionsIT_EESC_, symObjAddr: 0x6560, symBinAddr: 0x1000075A0, symSize: 0x60 }
  - { offsetInCU: 0x18CEB, offset: 0x18CEB, size: 0x8, addend: 0x0, symName: __ZNSt3__1neB8ue170006IPNS_6vectorIfNS_9allocatorIfEEEES5_EEbRKNS_16reverse_iteratorIT_EERKNS6_IT0_EE, symObjAddr: 0x6600, symBinAddr: 0x100007640, symSize: 0x40 }
  - { offsetInCU: 0x18D37, offset: 0x18D37, size: 0x8, addend: 0x0, symName: __ZNSt3__112__to_addressB8ue170006INS_16reverse_iteratorIPNS_6vectorIfNS_9allocatorIfEEEEEEvEEu7__decayIDTclsr19__to_address_helperIT_EE6__callclsr3stdE7declvalIRKS8_EEEEESA_, symObjAddr: 0x6640, symBinAddr: 0x100007680, symSize: 0x20 }
  - { offsetInCU: 0x18D96, offset: 0x18D96, size: 0x8, addend: 0x0, symName: __ZNSt3__14prevB8ue170006IPNS_6vectorIfNS_9allocatorIfEEEEEENS_9enable_ifIXsr29__has_input_iterator_categoryIT_EE5valueES7_E4typeES7_NS_15iterator_traitsIS7_E15difference_typeE, symObjAddr: 0x6810, symBinAddr: 0x100007850, symSize: 0x30 }
  - { offsetInCU: 0x18DD9, offset: 0x18DD9, size: 0x8, addend: 0x0, symName: __ZNSt3__121__convert_to_integralB8ue170006El, symObjAddr: 0x6870, symBinAddr: 0x1000078B0, symSize: 0x10 }
  - { offsetInCU: 0x18E05, offset: 0x18E05, size: 0x8, addend: 0x0, symName: __ZNSt3__19__advanceB8ue170006IPNS_6vectorIfNS_9allocatorIfEEEEEEvRT_NS_15iterator_traitsIS6_E15difference_typeENS_26random_access_iterator_tagE, symObjAddr: 0x6880, symBinAddr: 0x1000078C0, symSize: 0x20 }
  - { offsetInCU: 0x18E4E, offset: 0x18E4E, size: 0x8, addend: 0x0, symName: __ZNSt3__119__allocator_destroyB8ue170006INS_9allocatorINS_6vectorIfNS1_IfEEEEEENS_16reverse_iteratorINS6_IPS4_EEEES9_EEvRT_T0_T1_, symObjAddr: 0x69D0, symBinAddr: 0x100007A10, symSize: 0x70 }
  - { offsetInCU: 0x18EB1, offset: 0x18EB1, size: 0x8, addend: 0x0, symName: __ZNSt3__1neB8ue170006INS_16reverse_iteratorIPNS_6vectorIfNS_9allocatorIfEEEEEES7_EEbRKNS1_IT_EERKNS1_IT0_EE, symObjAddr: 0x6A70, symBinAddr: 0x100007AB0, symSize: 0x50 }
  - { offsetInCU: 0x18EFD, offset: 0x18EFD, size: 0x8, addend: 0x0, symName: __ZNSt3__112__to_addressB8ue170006INS_16reverse_iteratorINS1_IPNS_6vectorIfNS_9allocatorIfEEEEEEEEvEEu7__decayIDTclsr19__to_address_helperIT_EE6__callclsr3stdE7declvalIRKS9_EEEEESB_, symObjAddr: 0x6AC0, symBinAddr: 0x100007B00, symSize: 0x20 }
  - { offsetInCU: 0x18F5C, offset: 0x18F5C, size: 0x8, addend: 0x0, symName: __ZNSt3__14prevB8ue170006INS_16reverse_iteratorIPNS_6vectorIfNS_9allocatorIfEEEEEEEENS_9enable_ifIXsr29__has_input_iterator_categoryIT_EE5valueES9_E4typeES9_NS_15iterator_traitsIS9_E15difference_typeE, symObjAddr: 0x6BC0, symBinAddr: 0x100007C00, symSize: 0x40 }
  - { offsetInCU: 0x18F9F, offset: 0x18F9F, size: 0x8, addend: 0x0, symName: __ZNSt3__19__advanceB8ue170006INS_16reverse_iteratorIPNS_6vectorIfNS_9allocatorIfEEEEEEEEvRT_NS_15iterator_traitsIS8_E15difference_typeENS_26random_access_iterator_tagE, symObjAddr: 0x6C30, symBinAddr: 0x100007C70, symSize: 0x30 }
  - { offsetInCU: 0x18FE8, offset: 0x18FE8, size: 0x8, addend: 0x0, symName: __ZNSt3__112construct_atB8ue170006IfJfEPfEEPT_S3_DpOT0_, symObjAddr: 0x7070, symBinAddr: 0x1000080B0, symSize: 0x30 }
  - { offsetInCU: 0x19058, offset: 0x19058, size: 0x8, addend: 0x0, symName: __ZNSt3__142__uninitialized_allocator_move_if_noexceptB8ue170006INS_9allocatorIfEENS_16reverse_iteratorIPfEES5_fvEET1_RT_T0_S9_S6_, symObjAddr: 0x74C0, symBinAddr: 0x100008500, symSize: 0x70 }
  - { offsetInCU: 0x190D4, offset: 0x190D4, size: 0x8, addend: 0x0, symName: __ZNSt3__14swapB8ue170006IPfEENS_9enable_ifIXaasr21is_move_constructibleIT_EE5valuesr18is_move_assignableIS3_EE5valueEvE4typeERS3_S6_, symObjAddr: 0x7580, symBinAddr: 0x1000085C0, symSize: 0x40 }
  - { offsetInCU: 0x19125, offset: 0x19125, size: 0x8, addend: 0x0, symName: __ZNSt3__14moveB8ue170006INS_16reverse_iteratorIPfEES3_EET0_T_S5_S4_, symObjAddr: 0x75C0, symBinAddr: 0x100008600, symSize: 0x80 }
  - { offsetInCU: 0x1917F, offset: 0x1917F, size: 0x8, addend: 0x0, symName: __ZNSt3__16__moveB8ue170006INS_17_ClassicAlgPolicyENS_16reverse_iteratorIPfEES4_S4_EENS_4pairIT0_T2_EES6_T1_S7_, symObjAddr: 0x7640, symBinAddr: 0x100008680, symSize: 0x90 }
  - { offsetInCU: 0x191EB, offset: 0x191EB, size: 0x8, addend: 0x0, symName: __ZNSt3__123__dispatch_copy_or_moveB8ue170006INS_17_ClassicAlgPolicyENS_11__move_loopIS1_EENS_14__move_trivialENS_16reverse_iteratorIPfEES7_S7_EENS_4pairIT2_T4_EES9_T3_SA_, symObjAddr: 0x76D0, symBinAddr: 0x100008710, symSize: 0x90 }
  - { offsetInCU: 0x19269, offset: 0x19269, size: 0x8, addend: 0x0, symName: __ZNSt3__121__unwrap_and_dispatchB8ue170006INS_10__overloadINS_11__move_loopINS_17_ClassicAlgPolicyEEENS_14__move_trivialEEENS_16reverse_iteratorIPfEES9_S9_Li0EEENS_4pairIT0_T2_EESB_T1_SC_, symObjAddr: 0x7760, symBinAddr: 0x1000087A0, symSize: 0x210 }
  - { offsetInCU: 0x192F8, offset: 0x192F8, size: 0x8, addend: 0x0, symName: __ZNSt3__114__unwrap_rangeB8ue170006INS_16reverse_iteratorIPfEES3_EEDaT_T0_, symObjAddr: 0x7970, symBinAddr: 0x1000089B0, symSize: 0x60 }
  - { offsetInCU: 0x19465, offset: 0x19465, size: 0x8, addend: 0x0, symName: __ZNSt3__113__unwrap_iterB8ue170006INS_16reverse_iteratorIPfEENS_18__unwrap_iter_implIS3_Lb0EEELi0EEEDTclsrT0_8__unwrapclsr3stdE7declvalIT_EEEES7_, symObjAddr: 0x7A70, symBinAddr: 0x100008AB0, symSize: 0x40 }
  - { offsetInCU: 0x194A9, offset: 0x194A9, size: 0x8, addend: 0x0, symName: __ZNSt3__19make_pairB8ue170006INS_16reverse_iteratorIPfEES3_EENS_4pairINS_18__unwrap_ref_decayIT_E4typeENS5_IT0_E4typeEEEOS6_OS9_, symObjAddr: 0x7AB0, symBinAddr: 0x100008AF0, symSize: 0x30 }
  - { offsetInCU: 0x194F8, offset: 0x194F8, size: 0x8, addend: 0x0, symName: __ZNSt3__114__rewrap_rangeB8ue170006INS_16reverse_iteratorIPfEES3_S3_EET0_S4_T1_, symObjAddr: 0x7AE0, symBinAddr: 0x100008B20, symSize: 0x60 }
  - { offsetInCU: 0x1954D, offset: 0x1954D, size: 0x8, addend: 0x0, symName: __ZNSt3__113__rewrap_iterB8ue170006INS_16reverse_iteratorIPfEES3_NS_18__unwrap_iter_implIS3_Lb0EEEEET_S6_T0_, symObjAddr: 0x7B40, symBinAddr: 0x100008B80, symSize: 0x70 }
  - { offsetInCU: 0x195F2, offset: 0x195F2, size: 0x8, addend: 0x0, symName: __ZNSt3__1neB8ue170006IPfS1_EEbRKNS_16reverse_iteratorIT_EERKNS2_IT0_EE, symObjAddr: 0x7CB0, symBinAddr: 0x100008CF0, symSize: 0x40 }
  - { offsetInCU: 0x196AA, offset: 0x196AA, size: 0x8, addend: 0x0, symName: __ZNSt3__116__pad_and_outputB8ue170006IcNS_11char_traitsIcEEEENS_19ostreambuf_iteratorIT_T0_EES6_PKS4_S8_S8_RNS_8ios_baseES4_, symObjAddr: 0x8390, symBinAddr: 0x1000093D0, symSize: 0x220 }
  - { offsetInCU: 0x1977A, offset: 0x1977A, size: 0x8, addend: 0x0, symName: __ZNSt3__112__to_addressB8ue170006IcEEPT_S2_, symObjAddr: 0x87F0, symBinAddr: 0x100009830, symSize: 0x10 }
  - { offsetInCU: 0x197AF, offset: 0x197AF, size: 0x8, addend: 0x0, symName: __ZNSt3__19use_facetB8ue170006INS_5ctypeIcEEEERKT_RKNS_6localeE, symObjAddr: 0x8A50, symBinAddr: 0x100009A90, symSize: 0x30 }
  - { offsetInCU: 0x19CA0, offset: 0x19CA0, size: 0x8, addend: 0x0, symName: __ZNSt3__1miB8ue170006IPNS_6vectorIfNS_9allocatorIfEEEES5_EEDTmicldtfp_4baseEcldtfp0_4baseEERKNS_11__wrap_iterIT_EERKNS7_IT0_EE, symObjAddr: 0x8D10, symBinAddr: 0x100009D50, symSize: 0x40 }
  - { offsetInCU: 0x19CEC, offset: 0x19CEC, size: 0x8, addend: 0x0, symName: __ZNSt3__1ltB8ue170006IPNS_6vectorIfNS_9allocatorIfEEEEEEbRKNS_11__wrap_iterIT_EESA_, symObjAddr: 0x8DA0, symBinAddr: 0x100009DE0, symSize: 0x40 }
  - { offsetInCU: 0x19D2F, offset: 0x19D2F, size: 0x8, addend: 0x0, symName: __ZNSt3__113__countl_zeroB8ue170006ImEEiT_, symObjAddr: 0x9130, symBinAddr: 0x10000A170, symSize: 0x40 }
  - { offsetInCU: 0x19D64, offset: 0x19D64, size: 0x8, addend: 0x0, symName: __ZNSt3__112__libcpp_clzB8ue170006Em, symObjAddr: 0x96D0, symBinAddr: 0x10000A710, symSize: 0x20 }
  - { offsetInCU: 0x19D90, offset: 0x19D90, size: 0x8, addend: 0x0, symName: __ZNSt3__19iter_swapB8ue170006INS_11__wrap_iterIPNS_6vectorIfNS_9allocatorIfEEEEEES7_EEvT_T0_, symObjAddr: 0x9720, symBinAddr: 0x10000A760, symSize: 0x40 }
  - { offsetInCU: 0x19DD8, offset: 0x19DD8, size: 0x8, addend: 0x0, symName: __ZNSt3__14swapB8ue170006IfNS_9allocatorIfEEEEvRNS_6vectorIT_T0_EES7_, symObjAddr: 0x9760, symBinAddr: 0x10000A7A0, symSize: 0x30 }
  - { offsetInCU: 0x19E23, offset: 0x19E23, size: 0x8, addend: 0x0, symName: __ZNSt3__116__swap_allocatorB8ue170006INS_9allocatorIfEEEEvRT_S4_NS_17integral_constantIbLb0EEE, symObjAddr: 0x9830, symBinAddr: 0x10000A870, symSize: 0x10 }
  - { offsetInCU: 0x19E64, offset: 0x19E64, size: 0x8, addend: 0x0, symName: __ZNSt3__1miB8ue170006IPiS1_EEDTmicldtfp_4baseEcldtfp0_4baseEERKNS_11__wrap_iterIT_EERKNS3_IT0_EE, symObjAddr: 0x99A0, symBinAddr: 0x10000A9E0, symSize: 0x40 }
  - { offsetInCU: 0x19EB0, offset: 0x19EB0, size: 0x8, addend: 0x0, symName: __ZNSt3__1ltB8ue170006IPiEEbRKNS_11__wrap_iterIT_EES6_, symObjAddr: 0x9A00, symBinAddr: 0x10000AA40, symSize: 0x40 }
  - { offsetInCU: 0x19EF3, offset: 0x19EF3, size: 0x8, addend: 0x0, symName: __ZNSt3__19iter_swapB8ue170006INS_11__wrap_iterIPiEES3_EEvT_T0_, symObjAddr: 0x9B00, symBinAddr: 0x10000AB40, symSize: 0x40 }
  - { offsetInCU: 0x19F3B, offset: 0x19F3B, size: 0x8, addend: 0x0, symName: __ZNSt3__14swapB8ue170006IiEENS_9enable_ifIXaasr21is_move_constructibleIT_EE5valuesr18is_move_assignableIS2_EE5valueEvE4typeERS2_S5_, symObjAddr: 0x9B40, symBinAddr: 0x10000AB80, symSize: 0x30 }
  - { offsetInCU: 0x1A58E, offset: 0x1A58E, size: 0x8, addend: 0x0, symName: __ZSt28__throw_bad_array_new_lengthB8ue170006v, symObjAddr: 0x25E0, symBinAddr: 0x100003620, symSize: 0x40 }
  - { offsetInCU: 0x1B538, offset: 0x1B538, size: 0x8, addend: 0x0, symName: __ZNSt3__16vectorIiNS_9allocatorIiEEE26__swap_out_circular_bufferERNS_14__split_bufferIiRS2_EE, symObjAddr: 0x4690, symBinAddr: 0x1000056D0, symSize: 0x120 }
  - { offsetInCU: 0x1B590, offset: 0x1B590, size: 0x8, addend: 0x0, symName: __ZNSt3__16vectorINS0_IfNS_9allocatorIfEEEENS1_IS3_EEE26__swap_out_circular_bufferERNS_14__split_bufferIS3_RS4_EE, symObjAddr: 0x5D70, symBinAddr: 0x100006DB0, symSize: 0x120 }
  - { offsetInCU: 0x1B628, offset: 0x1B628, size: 0x8, addend: 0x0, symName: __ZNSt3__16vectorIfNS_9allocatorIfEEE26__swap_out_circular_bufferERNS_14__split_bufferIfRS2_EE, symObjAddr: 0x7180, symBinAddr: 0x1000081C0, symSize: 0x120 }
  - { offsetInCU: 0x1B7BE, offset: 0x1B7BE, size: 0x8, addend: 0x0, symName: __ZNSt3__124uniform_int_distributionIlEclINS_23mersenne_twister_engineIjLm32ELm624ELm397ELm31ELj2567483615ELm11ELj4294967295ELm7ELj2636928640ELm15ELj4022730752ELm18ELj1812433253EEEEElRT_RKNS1_10param_typeE, symObjAddr: 0x8DE0, symBinAddr: 0x100009E20, symSize: 0x170 }
  - { offsetInCU: 0x1DBA9, offset: 0x1DBA9, size: 0x8, addend: 0x0, symName: _main, symObjAddr: 0x0, symBinAddr: 0x100001040, symSize: 0x920 }
  - { offsetInCU: 0x1DCBF, offset: 0x1DCBF, size: 0x8, addend: 0x0, symName: __ZNSt3__16vectorIiNS_9allocatorIiEEEC1B8ue170006Ev, symObjAddr: 0x920, symBinAddr: 0x100001960, symSize: 0x20 }
  - { offsetInCU: 0x1DCE9, offset: 0x1DCE9, size: 0x8, addend: 0x0, symName: __ZNSt3__16vectorINS0_IfNS_9allocatorIfEEEENS1_IS3_EEEC1B8ue170006Ev, symObjAddr: 0x940, symBinAddr: 0x100001980, symSize: 0x20 }
  - { offsetInCU: 0x1DD12, offset: 0x1DD12, size: 0x8, addend: 0x0, symName: __Z14getInputOutputRNSt3__16vectorIiNS_9allocatorIiEEEERNS0_INS0_IfNS1_IfEEEENS1_IS6_EEEERi, symObjAddr: 0x960, symBinAddr: 0x1000019A0, symSize: 0x3D0 }
  - { offsetInCU: 0x1DDA1, offset: 0x1DDA1, size: 0x8, addend: 0x0, symName: __ZNSt3__112basic_stringIcNS_11char_traitsIcEENS_9allocatorIcEEEC1B8ue170006ILi0EEEPKc, symObjAddr: 0xD30, symBinAddr: 0x100001D70, symSize: 0x30 }
  - { offsetInCU: 0x1DDE0, offset: 0x1DDE0, size: 0x8, addend: 0x0, symName: __ZNSt3__16vectorIfNS_9allocatorIfEEEC1Em, symObjAddr: 0xD60, symBinAddr: 0x100001DA0, symSize: 0x30 }
  - { offsetInCU: 0x1DE35, offset: 0x1DE35, size: 0x8, addend: 0x0, symName: __ZNSt3__113random_deviceC1B8ue170006Ev, symObjAddr: 0xDD0, symBinAddr: 0x100001E10, symSize: 0x70 }
  - { offsetInCU: 0x1DE5F, offset: 0x1DE5F, size: 0x8, addend: 0x0, symName: __ZNSt3__123mersenne_twister_engineIjLm32ELm624ELm397ELm31ELj2567483615ELm11ELj4294967295ELm7ELj2636928640ELm15ELj4022730752ELm18ELj1812433253EEC1B8ue170006Ej, symObjAddr: 0xE40, symBinAddr: 0x100001E80, symSize: 0x30 }
  - { offsetInCU: 0x1DE97, offset: 0x1DE97, size: 0x8, addend: 0x0, symName: __ZNSt3__16vectorINS0_IfNS_9allocatorIfEEEENS1_IS3_EEE5beginB8ue170006Ev, symObjAddr: 0xEB0, symBinAddr: 0x100001EF0, symSize: 0x30 }
  - { offsetInCU: 0x1DEBF, offset: 0x1DEBF, size: 0x8, addend: 0x0, symName: __ZNSt3__16vectorINS0_IfNS_9allocatorIfEEEENS1_IS3_EEE3endB8ue170006Ev, symObjAddr: 0xEE0, symBinAddr: 0x100001F20, symSize: 0x30 }
  - { offsetInCU: 0x1DEE7, offset: 0x1DEE7, size: 0x8, addend: 0x0, symName: __ZNSt3__16vectorIiNS_9allocatorIiEEE5beginB8ue170006Ev, symObjAddr: 0xF50, symBinAddr: 0x100001F90, symSize: 0x30 }
  - { offsetInCU: 0x1DF0F, offset: 0x1DF0F, size: 0x8, addend: 0x0, symName: __ZNSt3__16vectorIiNS_9allocatorIiEEE3endB8ue170006Ev, symObjAddr: 0xF80, symBinAddr: 0x100001FC0, symSize: 0x30 }
  - { offsetInCU: 0x1DF37, offset: 0x1DF37, size: 0x8, addend: 0x0, symName: __ZNSt3__16vectorINS0_IfNS_9allocatorIfEEEENS1_IS3_EEEixB8ue170006Em, symObjAddr: 0xFB0, symBinAddr: 0x100001FF0, symSize: 0x20 }
  - { offsetInCU: 0x1DF6E, offset: 0x1DF6E, size: 0x8, addend: 0x0, symName: __ZNSt3__16vectorIfNS_9allocatorIfEEEaSB8ue170006EOS3_, symObjAddr: 0xFD0, symBinAddr: 0x100002010, symSize: 0x30 }
  - { offsetInCU: 0x1DFA5, offset: 0x1DFA5, size: 0x8, addend: 0x0, symName: __ZNSt3__16vectorIfNS_9allocatorIfEEED1B8ue170006Ev, symObjAddr: 0x1000, symBinAddr: 0x100002040, symSize: 0x20 }
  - { offsetInCU: 0x1DFCF, offset: 0x1DFCF, size: 0x8, addend: 0x0, symName: __ZNSt3__16vectorIiNS_9allocatorIiEEEixB8ue170006Em, symObjAddr: 0x1020, symBinAddr: 0x100002060, symSize: 0x20 }
  - { offsetInCU: 0x1E006, offset: 0x1E006, size: 0x8, addend: 0x0, symName: __ZNSt3__16vectorIfNS_9allocatorIfEEEC1B8ue170006Ev, symObjAddr: 0x1040, symBinAddr: 0x100002080, symSize: 0x20 }
  - { offsetInCU: 0x1E030, offset: 0x1E030, size: 0x8, addend: 0x0, symName: __ZNSt3__16vectorIfNS_9allocatorIfEEE5beginB8ue170006Ev, symObjAddr: 0x10A0, symBinAddr: 0x1000020E0, symSize: 0x30 }
  - { offsetInCU: 0x1E058, offset: 0x1E058, size: 0x8, addend: 0x0, symName: __ZNSt3__16vectorIfNS_9allocatorIfEEE3endB8ue170006Ev, symObjAddr: 0x1110, symBinAddr: 0x100002150, symSize: 0x30 }
  - { offsetInCU: 0x1E080, offset: 0x1E080, size: 0x8, addend: 0x0, symName: __ZNSt3__113basic_ostreamIcNS_11char_traitsIcEEElsB8ue170006EPFRS3_S4_E, symObjAddr: 0x1140, symBinAddr: 0x100002180, symSize: 0x20 }
  - { offsetInCU: 0x1E2C5, offset: 0x1E2C5, size: 0x8, addend: 0x0, symName: __ZN9NeuralNetD1Ev, symObjAddr: 0x11B0, symBinAddr: 0x1000021F0, symSize: 0x20 }
  - { offsetInCU: 0x1E2F1, offset: 0x1E2F1, size: 0x8, addend: 0x0, symName: __ZNSt3__16vectorINS0_IfNS_9allocatorIfEEEENS1_IS3_EEED1B8ue170006Ev, symObjAddr: 0x11D0, symBinAddr: 0x100002210, symSize: 0x20 }
  - { offsetInCU: 0x1E31B, offset: 0x1E31B, size: 0x8, addend: 0x0, symName: __ZNSt3__16vectorIiNS_9allocatorIiEEED1B8ue170006Ev, symObjAddr: 0x11F0, symBinAddr: 0x100002230, symSize: 0x20 }
  - { offsetInCU: 0x1E478, offset: 0x1E478, size: 0x8, addend: 0x0, symName: __ZNSt3__114basic_ifstreamIcNS_11char_traitsIcEEEC1EPKcj, symObjAddr: 0x1210, symBinAddr: 0x100002250, symSize: 0x160 }
  - { offsetInCU: 0x1E4C2, offset: 0x1E4C2, size: 0x8, addend: 0x0, symName: __ZNSt3__112basic_stringIcNS_11char_traitsIcEENS_9allocatorIcEEEC1B8ue170006Ev, symObjAddr: 0x1370, symBinAddr: 0x1000023B0, symSize: 0x20 }
  - { offsetInCU: 0x1E4EC, offset: 0x1E4EC, size: 0x8, addend: 0x0, symName: __ZNKSt3__19basic_iosIcNS_11char_traitsIcEEEcvbB8ue170006Ev, symObjAddr: 0x13E0, symBinAddr: 0x100002420, symSize: 0x30 }
  - { offsetInCU: 0x1E590, offset: 0x1E590, size: 0x8, addend: 0x0, symName: __ZNSt3__118basic_stringstreamIcNS_11char_traitsIcEENS_9allocatorIcEEEC1B8ue170006ERKNS_12basic_stringIcS2_S4_EEj, symObjAddr: 0x1410, symBinAddr: 0x100002450, symSize: 0x100 }
  - { offsetInCU: 0x1E5D8, offset: 0x1E5D8, size: 0x8, addend: 0x0, symName: __ZNSt3__16vectorIiNS_9allocatorIiEEE9push_backB8ue170006EOi, symObjAddr: 0x1730, symBinAddr: 0x100002770, symSize: 0x60 }
  - { offsetInCU: 0x1E60F, offset: 0x1E60F, size: 0x8, addend: 0x0, symName: __ZNSt3__16vectorINS0_IfNS_9allocatorIfEEEENS1_IS3_EEE9push_backB8ue170006EOS3_, symObjAddr: 0x1790, symBinAddr: 0x1000027D0, symSize: 0x60 }
  - { offsetInCU: 0x1E646, offset: 0x1E646, size: 0x8, addend: 0x0, symName: __ZNSt3__16vectorIfNS_9allocatorIfEEE9push_backB8ue170006EOf, symObjAddr: 0x17F0, symBinAddr: 0x100002830, symSize: 0x60 }
  - { offsetInCU: 0x1E682, offset: 0x1E682, size: 0x8, addend: 0x0, symName: __ZNSt3__118basic_stringstreamIcNS_11char_traitsIcEENS_9allocatorIcEEED1Ev, symObjAddr: 0x1850, symBinAddr: 0x100002890, symSize: 0x40 }
  - { offsetInCU: 0x1E6AF, offset: 0x1E6AF, size: 0x8, addend: 0x0, symName: __ZNSt3__114basic_ifstreamIcNS_11char_traitsIcEEE5closeEv, symObjAddr: 0x1890, symBinAddr: 0x1000028D0, symSize: 0x50 }
  - { offsetInCU: 0x1E6DC, offset: 0x1E6DC, size: 0x8, addend: 0x0, symName: __ZNSt3__114basic_ifstreamIcNS_11char_traitsIcEEED1Ev, symObjAddr: 0x18E0, symBinAddr: 0x100002920, symSize: 0x40 }
  - { offsetInCU: 0x1E709, offset: 0x1E709, size: 0x8, addend: 0x0, symName: __ZNSt3__16vectorIiNS_9allocatorIiEEEC2B8ue170006Ev, symObjAddr: 0x1920, symBinAddr: 0x100002960, symSize: 0x50 }
  - { offsetInCU: 0x1E73F, offset: 0x1E73F, size: 0x8, addend: 0x0, symName: __ZNSt3__117__compressed_pairIPiNS_9allocatorIiEEEC1B8ue170006IDnNS_18__default_init_tagEEEOT_OT0_, symObjAddr: 0x1970, symBinAddr: 0x1000029B0, symSize: 0x30 }
  - { offsetInCU: 0x1E797, offset: 0x1E797, size: 0x8, addend: 0x0, symName: __ZNSt3__117__compressed_pairIPiNS_9allocatorIiEEEC2B8ue170006IDnNS_18__default_init_tagEEEOT_OT0_, symObjAddr: 0x19B0, symBinAddr: 0x1000029F0, symSize: 0x40 }
  - { offsetInCU: 0x1E7EF, offset: 0x1E7EF, size: 0x8, addend: 0x0, symName: __ZNSt3__122__compressed_pair_elemIPiLi0ELb0EEC2B8ue170006IDnvEEOT_, symObjAddr: 0x19F0, symBinAddr: 0x100002A30, symSize: 0x20 }
  - { offsetInCU: 0x1E831, offset: 0x1E831, size: 0x8, addend: 0x0, symName: __ZNSt3__122__compressed_pair_elemINS_9allocatorIiEELi1ELb1EEC2B8ue170006ENS_18__default_init_tagE, symObjAddr: 0x1A10, symBinAddr: 0x100002A50, symSize: 0x20 }
  - { offsetInCU: 0x1E865, offset: 0x1E865, size: 0x8, addend: 0x0, symName: __ZNSt3__19allocatorIiEC2B8ue170006Ev, symObjAddr: 0x1A30, symBinAddr: 0x100002A70, symSize: 0x20 }
  - { offsetInCU: 0x1E88F, offset: 0x1E88F, size: 0x8, addend: 0x0, symName: __ZNSt3__116__non_trivial_ifILb1ENS_9allocatorIiEEEC2B8ue170006Ev, symObjAddr: 0x1A50, symBinAddr: 0x100002A90, symSize: 0x10 }
  - { offsetInCU: 0x1E8B9, offset: 0x1E8B9, size: 0x8, addend: 0x0, symName: __ZNSt3__16vectorINS0_IfNS_9allocatorIfEEEENS1_IS3_EEEC2B8ue170006Ev, symObjAddr: 0x1A60, symBinAddr: 0x100002AA0, symSize: 0x50 }
  - { offsetInCU: 0x1E8E3, offset: 0x1E8E3, size: 0x8, addend: 0x0, symName: __ZNSt3__117__compressed_pairIPNS_6vectorIfNS_9allocatorIfEEEENS2_IS4_EEEC1B8ue170006IDnNS_18__default_init_tagEEEOT_OT0_, symObjAddr: 0x1AB0, symBinAddr: 0x100002AF0, symSize: 0x30 }
  - { offsetInCU: 0x1E93B, offset: 0x1E93B, size: 0x8, addend: 0x0, symName: __ZNSt3__117__compressed_pairIPNS_6vectorIfNS_9allocatorIfEEEENS2_IS4_EEEC2B8ue170006IDnNS_18__default_init_tagEEEOT_OT0_, symObjAddr: 0x1AE0, symBinAddr: 0x100002B20, symSize: 0x40 }
  - { offsetInCU: 0x1E993, offset: 0x1E993, size: 0x8, addend: 0x0, symName: __ZNSt3__122__compressed_pair_elemIPNS_6vectorIfNS_9allocatorIfEEEELi0ELb0EEC2B8ue170006IDnvEEOT_, symObjAddr: 0x1B20, symBinAddr: 0x100002B60, symSize: 0x20 }
  - { offsetInCU: 0x1E9D5, offset: 0x1E9D5, size: 0x8, addend: 0x0, symName: __ZNSt3__122__compressed_pair_elemINS_9allocatorINS_6vectorIfNS1_IfEEEEEELi1ELb1EEC2B8ue170006ENS_18__default_init_tagE, symObjAddr: 0x1B40, symBinAddr: 0x100002B80, symSize: 0x20 }
  - { offsetInCU: 0x1EA09, offset: 0x1EA09, size: 0x8, addend: 0x0, symName: __ZNSt3__19allocatorINS_6vectorIfNS0_IfEEEEEC2B8ue170006Ev, symObjAddr: 0x1B60, symBinAddr: 0x100002BA0, symSize: 0x20 }
  - { offsetInCU: 0x1EA33, offset: 0x1EA33, size: 0x8, addend: 0x0, symName: __ZNSt3__116__non_trivial_ifILb1ENS_9allocatorINS_6vectorIfNS1_IfEEEEEEEC2B8ue170006Ev, symObjAddr: 0x1B80, symBinAddr: 0x100002BC0, symSize: 0x10 }
  - { offsetInCU: 0x1EA5D, offset: 0x1EA5D, size: 0x8, addend: 0x0, symName: __ZNSt3__112basic_stringIcNS_11char_traitsIcEENS_9allocatorIcEEEC2B8ue170006ILi0EEEPKc, symObjAddr: 0x1B90, symBinAddr: 0x100002BD0, symSize: 0x50 }
  - { offsetInCU: 0x1EA9C, offset: 0x1EA9C, size: 0x8, addend: 0x0, symName: __ZNSt3__117__compressed_pairINS_12basic_stringIcNS_11char_traitsIcEENS_9allocatorIcEEE5__repES5_EC1B8ue170006INS_18__default_init_tagESA_EEOT_OT0_, symObjAddr: 0x1BE0, symBinAddr: 0x100002C20, symSize: 0x30 }
  - { offsetInCU: 0x1EAF4, offset: 0x1EAF4, size: 0x8, addend: 0x0, symName: __ZNSt3__111char_traitsIcE6lengthB8ue170006EPKc, symObjAddr: 0x1C10, symBinAddr: 0x100002C50, symSize: 0x30 }
  - { offsetInCU: 0x1EB17, offset: 0x1EB17, size: 0x8, addend: 0x0, symName: __ZNSt3__117__compressed_pairINS_12basic_stringIcNS_11char_traitsIcEENS_9allocatorIcEEE5__repES5_EC2B8ue170006INS_18__default_init_tagESA_EEOT_OT0_, symObjAddr: 0x1C40, symBinAddr: 0x100002C80, symSize: 0x30 }
  - { offsetInCU: 0x1EB6F, offset: 0x1EB6F, size: 0x8, addend: 0x0, symName: __ZNSt3__122__compressed_pair_elemINS_12basic_stringIcNS_11char_traitsIcEENS_9allocatorIcEEE5__repELi0ELb0EEC2B8ue170006ENS_18__default_init_tagE, symObjAddr: 0x1C70, symBinAddr: 0x100002CB0, symSize: 0x10 }
  - { offsetInCU: 0x1EBA3, offset: 0x1EBA3, size: 0x8, addend: 0x0, symName: __ZNSt3__122__compressed_pair_elemINS_9allocatorIcEELi1ELb1EEC2B8ue170006ENS_18__default_init_tagE, symObjAddr: 0x1C80, symBinAddr: 0x100002CC0, symSize: 0x20 }
  - { offsetInCU: 0x1EBD7, offset: 0x1EBD7, size: 0x8, addend: 0x0, symName: __ZNSt3__19allocatorIcEC2B8ue170006Ev, symObjAddr: 0x1CA0, symBinAddr: 0x100002CE0, symSize: 0x20 }
  - { offsetInCU: 0x1EC01, offset: 0x1EC01, size: 0x8, addend: 0x0, symName: __ZNSt3__116__non_trivial_ifILb1ENS_9allocatorIcEEEC2B8ue170006Ev, symObjAddr: 0x1CC0, symBinAddr: 0x100002D00, symSize: 0x10 }
  - { offsetInCU: 0x1EC2B, offset: 0x1EC2B, size: 0x8, addend: 0x0, symName: __ZNSt3__16vectorIfNS_9allocatorIfEEEC2Em, symObjAddr: 0x1CF0, symBinAddr: 0x100002D30, symSize: 0xD0 }
  - { offsetInCU: 0x1EC7B, offset: 0x1EC7B, size: 0x8, addend: 0x0, symName: __ZNSt3__117__compressed_pairIPfNS_9allocatorIfEEEC1B8ue170006IDnNS_18__default_init_tagEEEOT_OT0_, symObjAddr: 0x1DC0, symBinAddr: 0x100002E00, symSize: 0x30 }
  - { offsetInCU: 0x1ECD3, offset: 0x1ECD3, size: 0x8, addend: 0x0, symName: __ZNSt3__16vectorIfNS_9allocatorIfEEE16__destroy_vectorC1B8ue170006ERS3_, symObjAddr: 0x1E30, symBinAddr: 0x100002E70, symSize: 0x30 }
  - { offsetInCU: 0x1ED0C, offset: 0x1ED0C, size: 0x8, addend: 0x0, symName: __ZNSt3__16vectorIfNS_9allocatorIfEEE11__vallocateB8ue170006Em, symObjAddr: 0x1E60, symBinAddr: 0x100002EA0, symSize: 0xA0 }
  - { offsetInCU: 0x1ED50, offset: 0x1ED50, size: 0x8, addend: 0x0, symName: __ZNSt3__16vectorIfNS_9allocatorIfEEE18__construct_at_endEm, symObjAddr: 0x1F00, symBinAddr: 0x100002F40, symSize: 0xC0 }
  - { offsetInCU: 0x1EDC2, offset: 0x1EDC2, size: 0x8, addend: 0x0, symName: __ZNSt3__128__exception_guard_exceptionsINS_6vectorIfNS_9allocatorIfEEE16__destroy_vectorEE10__completeB8ue170006Ev, symObjAddr: 0x1FC0, symBinAddr: 0x100003000, symSize: 0x20 }
  - { offsetInCU: 0x1EDE8, offset: 0x1EDE8, size: 0x8, addend: 0x0, symName: __ZNSt3__128__exception_guard_exceptionsINS_6vectorIfNS_9allocatorIfEEE16__destroy_vectorEED1B8ue170006Ev, symObjAddr: 0x1FE0, symBinAddr: 0x100003020, symSize: 0x20 }
  - { offsetInCU: 0x1EE12, offset: 0x1EE12, size: 0x8, addend: 0x0, symName: __ZNSt3__117__compressed_pairIPfNS_9allocatorIfEEEC2B8ue170006IDnNS_18__default_init_tagEEEOT_OT0_, symObjAddr: 0x2000, symBinAddr: 0x100003040, symSize: 0x40 }
  - { offsetInCU: 0x1EE6A, offset: 0x1EE6A, size: 0x8, addend: 0x0, symName: __ZNSt3__122__compressed_pair_elemIPfLi0ELb0EEC2B8ue170006IDnvEEOT_, symObjAddr: 0x2040, symBinAddr: 0x100003080, symSize: 0x20 }
  - { offsetInCU: 0x1EEAC, offset: 0x1EEAC, size: 0x8, addend: 0x0, symName: __ZNSt3__122__compressed_pair_elemINS_9allocatorIfEELi1ELb1EEC2B8ue170006ENS_18__default_init_tagE, symObjAddr: 0x2060, symBinAddr: 0x1000030A0, symSize: 0x20 }
  - { offsetInCU: 0x1EEE0, offset: 0x1EEE0, size: 0x8, addend: 0x0, symName: __ZNSt3__19allocatorIfEC2B8ue170006Ev, symObjAddr: 0x2080, symBinAddr: 0x1000030C0, symSize: 0x20 }
  - { offsetInCU: 0x1EF0A, offset: 0x1EF0A, size: 0x8, addend: 0x0, symName: __ZNSt3__116__non_trivial_ifILb1ENS_9allocatorIfEEEC2B8ue170006Ev, symObjAddr: 0x20A0, symBinAddr: 0x1000030E0, symSize: 0x10 }
  - { offsetInCU: 0x1EF34, offset: 0x1EF34, size: 0x8, addend: 0x0, symName: __ZNSt3__128__exception_guard_exceptionsINS_6vectorIfNS_9allocatorIfEEE16__destroy_vectorEEC1B8ue170006ES5_, symObjAddr: 0x20B0, symBinAddr: 0x1000030F0, symSize: 0x30 }
  - { offsetInCU: 0x1EF6C, offset: 0x1EF6C, size: 0x8, addend: 0x0, symName: __ZNSt3__128__exception_guard_exceptionsINS_6vectorIfNS_9allocatorIfEEE16__destroy_vectorEEC2B8ue170006ES5_, symObjAddr: 0x20E0, symBinAddr: 0x100003120, symSize: 0x20 }
  - { offsetInCU: 0x1EFA4, offset: 0x1EFA4, size: 0x8, addend: 0x0, symName: __ZNSt3__16vectorIfNS_9allocatorIfEEE16__destroy_vectorC2B8ue170006ERS3_, symObjAddr: 0x2100, symBinAddr: 0x100003140, symSize: 0x20 }
  - { offsetInCU: 0x1EFDD, offset: 0x1EFDD, size: 0x8, addend: 0x0, symName: __ZNKSt3__16vectorIfNS_9allocatorIfEEE8max_sizeEv, symObjAddr: 0x2120, symBinAddr: 0x100003160, symSize: 0x60 }
  - { offsetInCU: 0x1F005, offset: 0x1F005, size: 0x8, addend: 0x0, symName: __ZNKSt3__16vectorIfNS_9allocatorIfEEE20__throw_length_errorB8ue170006Ev, symObjAddr: 0x2180, symBinAddr: 0x1000031C0, symSize: 0x20 }
  - { offsetInCU: 0x1F02B, offset: 0x1F02B, size: 0x8, addend: 0x0, symName: __ZNSt3__16vectorIfNS_9allocatorIfEEE7__allocB8ue170006Ev, symObjAddr: 0x21E0, symBinAddr: 0x100003220, symSize: 0x20 }
  - { offsetInCU: 0x1F051, offset: 0x1F051, size: 0x8, addend: 0x0, symName: __ZNSt3__16vectorIfNS_9allocatorIfEEE9__end_capB8ue170006Ev, symObjAddr: 0x2200, symBinAddr: 0x100003240, symSize: 0x20 }
  - { offsetInCU: 0x1F077, offset: 0x1F077, size: 0x8, addend: 0x0, symName: __ZNKSt3__16vectorIfNS_9allocatorIfEEE14__annotate_newB8ue170006Em, symObjAddr: 0x2220, symBinAddr: 0x100003260, symSize: 0xB0 }
  - { offsetInCU: 0x1F0B7, offset: 0x1F0B7, size: 0x8, addend: 0x0, symName: __ZNSt3__116allocator_traitsINS_9allocatorIfEEE8max_sizeB8ue170006IS2_vvEEmRKS2_, symObjAddr: 0x2300, symBinAddr: 0x100003340, symSize: 0x20 }
  - { offsetInCU: 0x1F0E2, offset: 0x1F0E2, size: 0x8, addend: 0x0, symName: __ZNKSt3__16vectorIfNS_9allocatorIfEEE7__allocB8ue170006Ev, symObjAddr: 0x2320, symBinAddr: 0x100003360, symSize: 0x20 }
  - { offsetInCU: 0x1F108, offset: 0x1F108, size: 0x8, addend: 0x0, symName: __ZNSt3__114numeric_limitsIlE3maxB8ue170006Ev, symObjAddr: 0x2340, symBinAddr: 0x100003380, symSize: 0x10 }
  - { offsetInCU: 0x1F131, offset: 0x1F131, size: 0x8, addend: 0x0, symName: __ZNKSt3__16__lessIvvEclB8ue170006ImmEEbRKT_RKT0_, symObjAddr: 0x23A0, symBinAddr: 0x1000033E0, symSize: 0x30 }
  - { offsetInCU: 0x1F185, offset: 0x1F185, size: 0x8, addend: 0x0, symName: __ZNSt3__114numeric_limitsImE3maxB8ue170006Ev, symObjAddr: 0x23D0, symBinAddr: 0x100003410, symSize: 0x10 }
  - { offsetInCU: 0x1F199, offset: 0x1F199, size: 0x8, addend: 0x0, symName: __ZNSt3__123__libcpp_numeric_limitsImLb1EE3maxB8ue170006Ev, symObjAddr: 0x23E0, symBinAddr: 0x100003420, symSize: 0x10 }
  - { offsetInCU: 0x1F1AD, offset: 0x1F1AD, size: 0x8, addend: 0x0, symName: __ZNKSt3__117__compressed_pairIPfNS_9allocatorIfEEE6secondB8ue170006Ev, symObjAddr: 0x23F0, symBinAddr: 0x100003430, symSize: 0x20 }
  - { offsetInCU: 0x1F1D3, offset: 0x1F1D3, size: 0x8, addend: 0x0, symName: __ZNKSt3__122__compressed_pair_elemINS_9allocatorIfEELi1ELb1EE5__getB8ue170006Ev, symObjAddr: 0x2410, symBinAddr: 0x100003450, symSize: 0x10 }
  - { offsetInCU: 0x1F1F9, offset: 0x1F1F9, size: 0x8, addend: 0x0, symName: __ZNSt3__123__libcpp_numeric_limitsIlLb1EE3maxB8ue170006Ev, symObjAddr: 0x2420, symBinAddr: 0x100003460, symSize: 0x10 }
  - { offsetInCU: 0x1F20D, offset: 0x1F20D, size: 0x8, addend: 0x0, symName: __ZNSt12length_errorC1B8ue170006EPKc, symObjAddr: 0x24A0, symBinAddr: 0x1000034E0, symSize: 0x30 }
  - { offsetInCU: 0x1F245, offset: 0x1F245, size: 0x8, addend: 0x0, symName: __ZNSt12length_errorC2B8ue170006EPKc, symObjAddr: 0x24D0, symBinAddr: 0x100003510, symSize: 0x40 }
  - { offsetInCU: 0x1F27D, offset: 0x1F27D, size: 0x8, addend: 0x0, symName: __ZNSt3__19allocatorIfE17allocate_at_leastB8ue170006Em, symObjAddr: 0x2550, symBinAddr: 0x100003590, symSize: 0x40 }
  - { offsetInCU: 0x1F2B1, offset: 0x1F2B1, size: 0x8, addend: 0x0, symName: __ZNSt3__19allocatorIfE8allocateB8ue170006Em, symObjAddr: 0x2590, symBinAddr: 0x1000035D0, symSize: 0x50 }
  - { offsetInCU: 0x1F2E5, offset: 0x1F2E5, size: 0x8, addend: 0x0, symName: __ZNSt3__117__compressed_pairIPfNS_9allocatorIfEEE6secondB8ue170006Ev, symObjAddr: 0x26F0, symBinAddr: 0x100003730, symSize: 0x20 }
  - { offsetInCU: 0x1F30B, offset: 0x1F30B, size: 0x8, addend: 0x0, symName: __ZNSt3__122__compressed_pair_elemINS_9allocatorIfEELi1ELb1EE5__getB8ue170006Ev, symObjAddr: 0x2710, symBinAddr: 0x100003750, symSize: 0x10 }
  - { offsetInCU: 0x1F331, offset: 0x1F331, size: 0x8, addend: 0x0, symName: __ZNSt3__117__compressed_pairIPfNS_9allocatorIfEEE5firstB8ue170006Ev, symObjAddr: 0x2720, symBinAddr: 0x100003760, symSize: 0x20 }
  - { offsetInCU: 0x1F357, offset: 0x1F357, size: 0x8, addend: 0x0, symName: __ZNSt3__122__compressed_pair_elemIPfLi0ELb0EE5__getB8ue170006Ev, symObjAddr: 0x2740, symBinAddr: 0x100003780, symSize: 0x10 }
  - { offsetInCU: 0x1F37D, offset: 0x1F37D, size: 0x8, addend: 0x0, symName: __ZNKSt3__16vectorIfNS_9allocatorIfEEE31__annotate_contiguous_containerB8ue170006EPKvS5_S5_S5_, symObjAddr: 0x2750, symBinAddr: 0x100003790, symSize: 0x20 }
  - { offsetInCU: 0x1F3CF, offset: 0x1F3CF, size: 0x8, addend: 0x0, symName: __ZNKSt3__16vectorIfNS_9allocatorIfEEE4dataB8ue170006Ev, symObjAddr: 0x2770, symBinAddr: 0x1000037B0, symSize: 0x20 }
  - { offsetInCU: 0x1F3F5, offset: 0x1F3F5, size: 0x8, addend: 0x0, symName: __ZNKSt3__16vectorIfNS_9allocatorIfEEE8capacityB8ue170006Ev, symObjAddr: 0x2790, symBinAddr: 0x1000037D0, symSize: 0x30 }
  - { offsetInCU: 0x1F41B, offset: 0x1F41B, size: 0x8, addend: 0x0, symName: __ZNKSt3__16vectorIfNS_9allocatorIfEEE9__end_capB8ue170006Ev, symObjAddr: 0x27D0, symBinAddr: 0x100003810, symSize: 0x20 }
  - { offsetInCU: 0x1F441, offset: 0x1F441, size: 0x8, addend: 0x0, symName: __ZNKSt3__117__compressed_pairIPfNS_9allocatorIfEEE5firstB8ue170006Ev, symObjAddr: 0x27F0, symBinAddr: 0x100003830, symSize: 0x20 }
  - { offsetInCU: 0x1F467, offset: 0x1F467, size: 0x8, addend: 0x0, symName: __ZNKSt3__122__compressed_pair_elemIPfLi0ELb0EE5__getB8ue170006Ev, symObjAddr: 0x2810, symBinAddr: 0x100003850, symSize: 0x10 }
  - { offsetInCU: 0x1F4A8, offset: 0x1F4A8, size: 0x8, addend: 0x0, symName: __ZNSt3__16vectorIfNS_9allocatorIfEEE21_ConstructTransactionC1B8ue170006ERS3_m, symObjAddr: 0x2820, symBinAddr: 0x100003860, symSize: 0x30 }
  - { offsetInCU: 0x1F4F0, offset: 0x1F4F0, size: 0x8, addend: 0x0, symName: __ZNSt3__116allocator_traitsINS_9allocatorIfEEE9constructB8ue170006IfJEvvEEvRS2_PT_DpOT0_, symObjAddr: 0x2850, symBinAddr: 0x100003890, symSize: 0x20 }
  - { offsetInCU: 0x1F52F, offset: 0x1F52F, size: 0x8, addend: 0x0, symName: __ZNSt3__16vectorIfNS_9allocatorIfEEE21_ConstructTransactionD1B8ue170006Ev, symObjAddr: 0x2870, symBinAddr: 0x1000038B0, symSize: 0x20 }
  - { offsetInCU: 0x1F559, offset: 0x1F559, size: 0x8, addend: 0x0, symName: __ZNSt3__16vectorIfNS_9allocatorIfEEE21_ConstructTransactionC2B8ue170006ERS3_m, symObjAddr: 0x2890, symBinAddr: 0x1000038D0, symSize: 0x40 }
  - { offsetInCU: 0x1F5A1, offset: 0x1F5A1, size: 0x8, addend: 0x0, symName: __ZNSt3__16vectorIfNS_9allocatorIfEEE21_ConstructTransactionD2B8ue170006Ev, symObjAddr: 0x28F0, symBinAddr: 0x100003930, symSize: 0x20 }
  - { offsetInCU: 0x1F5CB, offset: 0x1F5CB, size: 0x8, addend: 0x0, symName: __ZNSt3__128__exception_guard_exceptionsINS_6vectorIfNS_9allocatorIfEEE16__destroy_vectorEED2B8ue170006Ev, symObjAddr: 0x2910, symBinAddr: 0x100003950, symSize: 0x40 }
  - { offsetInCU: 0x1F5F5, offset: 0x1F5F5, size: 0x8, addend: 0x0, symName: __ZNSt3__16vectorIfNS_9allocatorIfEEE16__destroy_vectorclB8ue170006Ev, symObjAddr: 0x2950, symBinAddr: 0x100003990, symSize: 0x80 }
  - { offsetInCU: 0x1F61B, offset: 0x1F61B, size: 0x8, addend: 0x0, symName: __ZNSt3__16vectorIfNS_9allocatorIfEEE7__clearB8ue170006Ev, symObjAddr: 0x29D0, symBinAddr: 0x100003A10, symSize: 0x20 }
  - { offsetInCU: 0x1F641, offset: 0x1F641, size: 0x8, addend: 0x0, symName: __ZNKSt3__16vectorIfNS_9allocatorIfEEE17__annotate_deleteB8ue170006Ev, symObjAddr: 0x29F0, symBinAddr: 0x100003A30, symSize: 0xB0 }
  - { offsetInCU: 0x1F667, offset: 0x1F667, size: 0x8, addend: 0x0, symName: __ZNSt3__116allocator_traitsINS_9allocatorIfEEE10deallocateB8ue170006ERS2_Pfm, symObjAddr: 0x2AA0, symBinAddr: 0x100003AE0, symSize: 0x30 }
  - { offsetInCU: 0x1F6A9, offset: 0x1F6A9, size: 0x8, addend: 0x0, symName: __ZNSt3__16vectorIfNS_9allocatorIfEEE22__base_destruct_at_endB8ue170006EPf, symObjAddr: 0x2AD0, symBinAddr: 0x100003B10, symSize: 0x80 }
  - { offsetInCU: 0x1F6ED, offset: 0x1F6ED, size: 0x8, addend: 0x0, symName: __ZNSt3__116allocator_traitsINS_9allocatorIfEEE7destroyB8ue170006IfvvEEvRS2_PT_, symObjAddr: 0x2B50, symBinAddr: 0x100003B90, symSize: 0x20 }
  - { offsetInCU: 0x1F727, offset: 0x1F727, size: 0x8, addend: 0x0, symName: __ZNKSt3__16vectorIfNS_9allocatorIfEEE4sizeB8ue170006Ev, symObjAddr: 0x2BA0, symBinAddr: 0x100003BE0, symSize: 0x20 }
  - { offsetInCU: 0x1F74D, offset: 0x1F74D, size: 0x8, addend: 0x0, symName: __ZNSt3__19allocatorIfE10deallocateB8ue170006EPfm, symObjAddr: 0x2BC0, symBinAddr: 0x100003C00, symSize: 0x40 }
  - { offsetInCU: 0x1F78F, offset: 0x1F78F, size: 0x8, addend: 0x0, symName: __ZNSt3__16vectorINS0_IfNS_9allocatorIfEEEENS1_IS3_EEE11__make_iterB8ue170006EPS3_, symObjAddr: 0x2D00, symBinAddr: 0x100003D40, symSize: 0x30 }
  - { offsetInCU: 0x1F7C4, offset: 0x1F7C4, size: 0x8, addend: 0x0, symName: __ZNSt3__111__wrap_iterIPNS_6vectorIfNS_9allocatorIfEEEEEC1B8ue170006ES5_, symObjAddr: 0x2D30, symBinAddr: 0x100003D70, symSize: 0x30 }
  - { offsetInCU: 0x1F7FC, offset: 0x1F7FC, size: 0x8, addend: 0x0, symName: __ZNSt3__111__wrap_iterIPNS_6vectorIfNS_9allocatorIfEEEEEC2B8ue170006ES5_, symObjAddr: 0x2D60, symBinAddr: 0x100003DA0, symSize: 0x20 }
  - { offsetInCU: 0x1F834, offset: 0x1F834, size: 0x8, addend: 0x0, symName: __ZNSt3__16vectorIiNS_9allocatorIiEEE11__make_iterB8ue170006EPi, symObjAddr: 0x2D80, symBinAddr: 0x100003DC0, symSize: 0x30 }
  - { offsetInCU: 0x1F869, offset: 0x1F869, size: 0x8, addend: 0x0, symName: __ZNSt3__111__wrap_iterIPiEC1B8ue170006ES1_, symObjAddr: 0x2DB0, symBinAddr: 0x100003DF0, symSize: 0x30 }
  - { offsetInCU: 0x1F8A1, offset: 0x1F8A1, size: 0x8, addend: 0x0, symName: __ZNSt3__111__wrap_iterIPiEC2B8ue170006ES1_, symObjAddr: 0x2DE0, symBinAddr: 0x100003E20, symSize: 0x20 }
  - { offsetInCU: 0x1F8D9, offset: 0x1F8D9, size: 0x8, addend: 0x0, symName: __ZNSt3__16vectorIfNS_9allocatorIfEEE13__move_assignERS3_NS_17integral_constantIbLb1EEE, symObjAddr: 0x2E00, symBinAddr: 0x100003E40, symSize: 0xA0 }
  - { offsetInCU: 0x1F91B, offset: 0x1F91B, size: 0x8, addend: 0x0, symName: __ZNSt3__16vectorIfNS_9allocatorIfEEE13__vdeallocateEv, symObjAddr: 0x2EA0, symBinAddr: 0x100003EE0, symSize: 0x90 }
  - { offsetInCU: 0x1F943, offset: 0x1F943, size: 0x8, addend: 0x0, symName: __ZNSt3__16vectorIfNS_9allocatorIfEEE19__move_assign_allocB8ue170006ERS3_, symObjAddr: 0x2F30, symBinAddr: 0x100003F70, symSize: 0x30 }
  - { offsetInCU: 0x1F978, offset: 0x1F978, size: 0x8, addend: 0x0, symName: __ZNSt3__16vectorIfNS_9allocatorIfEEE5clearB8ue170006Ev, symObjAddr: 0x2F60, symBinAddr: 0x100003FA0, symSize: 0x40 }
  - { offsetInCU: 0x1F9AD, offset: 0x1F9AD, size: 0x8, addend: 0x0, symName: __ZNKSt3__16vectorIfNS_9allocatorIfEEE17__annotate_shrinkB8ue170006Em, symObjAddr: 0x2FA0, symBinAddr: 0x100003FE0, symSize: 0xA0 }
  - { offsetInCU: 0x1F9E2, offset: 0x1F9E2, size: 0x8, addend: 0x0, symName: __ZNSt3__16vectorIfNS_9allocatorIfEEE19__move_assign_allocB8ue170006ERS3_NS_17integral_constantIbLb1EEE, symObjAddr: 0x3040, symBinAddr: 0x100004080, symSize: 0x30 }
  - { offsetInCU: 0x1FA22, offset: 0x1FA22, size: 0x8, addend: 0x0, symName: __ZNSt3__16vectorIfNS_9allocatorIfEEED2B8ue170006Ev, symObjAddr: 0x3070, symBinAddr: 0x1000040B0, symSize: 0x40 }
  - { offsetInCU: 0x1FA4C, offset: 0x1FA4C, size: 0x8, addend: 0x0, symName: __ZNSt3__16vectorIfNS_9allocatorIfEEEC2B8ue170006Ev, symObjAddr: 0x30B0, symBinAddr: 0x1000040F0, symSize: 0x50 }
  - { offsetInCU: 0x1FA76, offset: 0x1FA76, size: 0x8, addend: 0x0, symName: __ZNKSt3__111__wrap_iterIPfE4baseB8ue170006Ev, symObjAddr: 0x3170, symBinAddr: 0x1000041B0, symSize: 0x20 }
  - { offsetInCU: 0x1FA9C, offset: 0x1FA9C, size: 0x8, addend: 0x0, symName: __ZNSt3__16vectorIfNS_9allocatorIfEEE11__make_iterB8ue170006EPf, symObjAddr: 0x3190, symBinAddr: 0x1000041D0, symSize: 0x30 }
  - { offsetInCU: 0x1FAD1, offset: 0x1FAD1, size: 0x8, addend: 0x0, symName: __ZNSt3__111__wrap_iterIPfEC1B8ue170006ES1_, symObjAddr: 0x31C0, symBinAddr: 0x100004200, symSize: 0x30 }
  - { offsetInCU: 0x1FB09, offset: 0x1FB09, size: 0x8, addend: 0x0, symName: __ZNSt3__111__wrap_iterIPfEC2B8ue170006ES1_, symObjAddr: 0x31F0, symBinAddr: 0x100004230, symSize: 0x20 }
  - { offsetInCU: 0x1FB41, offset: 0x1FB41, size: 0x8, addend: 0x0, symName: __ZNSt3__111__wrap_iterIPfEppB8ue170006Ev, symObjAddr: 0x3340, symBinAddr: 0x100004380, symSize: 0x20 }
  - { offsetInCU: 0x1FB6D, offset: 0x1FB6D, size: 0x8, addend: 0x0, symName: __ZNKSt3__16__lessIvvEclB8ue170006IffEEbRKT_RKT0_, symObjAddr: 0x3360, symBinAddr: 0x1000043A0, symSize: 0x30 }
  - { offsetInCU: 0x1FBC1, offset: 0x1FBC1, size: 0x8, addend: 0x0, symName: __ZNKSt3__111__wrap_iterIPfEdeB8ue170006Ev, symObjAddr: 0x3390, symBinAddr: 0x1000043D0, symSize: 0x20 }
  - { offsetInCU: 0x1FBE7, offset: 0x1FBE7, size: 0x8, addend: 0x0, symName: __ZN9NeuralNetD2Ev, symObjAddr: 0x33F0, symBinAddr: 0x100004430, symSize: 0x70 }
  - { offsetInCU: 0x1FC13, offset: 0x1FC13, size: 0x8, addend: 0x0, symName: __ZNSt3__16vectorINS0_INS0_IfNS_9allocatorIfEEEENS1_IS3_EEEENS1_IS5_EEED1B8ue170006Ev, symObjAddr: 0x3460, symBinAddr: 0x1000044A0, symSize: 0x20 }
  - { offsetInCU: 0x1FC3D, offset: 0x1FC3D, size: 0x8, addend: 0x0, symName: __ZNSt3__16vectorINS0_INS0_IfNS_9allocatorIfEEEENS1_IS3_EEEENS1_IS5_EEED2B8ue170006Ev, symObjAddr: 0x3480, symBinAddr: 0x1000044C0, symSize: 0x40 }
  - { offsetInCU: 0x1FC67, offset: 0x1FC67, size: 0x8, addend: 0x0, symName: __ZNSt3__16vectorINS0_INS0_IfNS_9allocatorIfEEEENS1_IS3_EEEENS1_IS5_EEE16__destroy_vectorC1B8ue170006ERS7_, symObjAddr: 0x34C0, symBinAddr: 0x100004500, symSize: 0x30 }
  - { offsetInCU: 0x1FCA0, offset: 0x1FCA0, size: 0x8, addend: 0x0, symName: __ZNSt3__16vectorINS0_INS0_IfNS_9allocatorIfEEEENS1_IS3_EEEENS1_IS5_EEE16__destroy_vectorclB8ue170006Ev, symObjAddr: 0x34F0, symBinAddr: 0x100004530, symSize: 0x80 }
  - { offsetInCU: 0x1FCC6, offset: 0x1FCC6, size: 0x8, addend: 0x0, symName: __ZNSt3__16vectorINS0_INS0_IfNS_9allocatorIfEEEENS1_IS3_EEEENS1_IS5_EEE16__destroy_vectorC2B8ue170006ERS7_, symObjAddr: 0x3570, symBinAddr: 0x1000045B0, symSize: 0x20 }
  - { offsetInCU: 0x1FCFF, offset: 0x1FCFF, size: 0x8, addend: 0x0, symName: __ZNSt3__16vectorINS0_INS0_IfNS_9allocatorIfEEEENS1_IS3_EEEENS1_IS5_EEE7__clearB8ue170006Ev, symObjAddr: 0x3590, symBinAddr: 0x1000045D0, symSize: 0x20 }
  - { offsetInCU: 0x1FD25, offset: 0x1FD25, size: 0x8, addend: 0x0, symName: __ZNKSt3__16vectorINS0_INS0_IfNS_9allocatorIfEEEENS1_IS3_EEEENS1_IS5_EEE17__annotate_deleteB8ue170006Ev, symObjAddr: 0x35B0, symBinAddr: 0x1000045F0, symSize: 0xB0 }
  - { offsetInCU: 0x1FD4B, offset: 0x1FD4B, size: 0x8, addend: 0x0, symName: __ZNSt3__116allocator_traitsINS_9allocatorINS_6vectorINS2_IfNS1_IfEEEENS1_IS4_EEEEEEE10deallocateB8ue170006ERS7_PS6_m, symObjAddr: 0x3660, symBinAddr: 0x1000046A0, symSize: 0x30 }
  - { offsetInCU: 0x1FD8D, offset: 0x1FD8D, size: 0x8, addend: 0x0, symName: __ZNSt3__16vectorINS0_INS0_IfNS_9allocatorIfEEEENS1_IS3_EEEENS1_IS5_EEE7__allocB8ue170006Ev, symObjAddr: 0x3690, symBinAddr: 0x1000046D0, symSize: 0x20 }
  - { offsetInCU: 0x1FDB3, offset: 0x1FDB3, size: 0x8, addend: 0x0, symName: __ZNKSt3__16vectorINS0_INS0_IfNS_9allocatorIfEEEENS1_IS3_EEEENS1_IS5_EEE8capacityB8ue170006Ev, symObjAddr: 0x36B0, symBinAddr: 0x1000046F0, symSize: 0x40 }
  - { offsetInCU: 0x1FDD9, offset: 0x1FDD9, size: 0x8, addend: 0x0, symName: __ZNSt3__16vectorINS0_INS0_IfNS_9allocatorIfEEEENS1_IS3_EEEENS1_IS5_EEE22__base_destruct_at_endB8ue170006EPS5_, symObjAddr: 0x36F0, symBinAddr: 0x100004730, symSize: 0x80 }
  - { offsetInCU: 0x1FE1D, offset: 0x1FE1D, size: 0x8, addend: 0x0, symName: __ZNSt3__116allocator_traitsINS_9allocatorINS_6vectorINS2_IfNS1_IfEEEENS1_IS4_EEEEEEE7destroyB8ue170006IS6_vvEEvRS7_PT_, symObjAddr: 0x3770, symBinAddr: 0x1000047B0, symSize: 0x20 }
  - { offsetInCU: 0x1FE57, offset: 0x1FE57, size: 0x8, addend: 0x0, symName: __ZNKSt3__16vectorINS0_INS0_IfNS_9allocatorIfEEEENS1_IS3_EEEENS1_IS5_EEE31__annotate_contiguous_containerB8ue170006EPKvS9_S9_S9_, symObjAddr: 0x37E0, symBinAddr: 0x100004820, symSize: 0x20 }
  - { offsetInCU: 0x1FEA9, offset: 0x1FEA9, size: 0x8, addend: 0x0, symName: __ZNKSt3__16vectorINS0_INS0_IfNS_9allocatorIfEEEENS1_IS3_EEEENS1_IS5_EEE4dataB8ue170006Ev, symObjAddr: 0x3800, symBinAddr: 0x100004840, symSize: 0x20 }
  - { offsetInCU: 0x1FECF, offset: 0x1FECF, size: 0x8, addend: 0x0, symName: __ZNKSt3__16vectorINS0_INS0_IfNS_9allocatorIfEEEENS1_IS3_EEEENS1_IS5_EEE4sizeB8ue170006Ev, symObjAddr: 0x3820, symBinAddr: 0x100004860, symSize: 0x30 }
  - { offsetInCU: 0x1FEF5, offset: 0x1FEF5, size: 0x8, addend: 0x0, symName: __ZNSt3__19allocatorINS_6vectorINS1_IfNS0_IfEEEENS0_IS3_EEEEE10deallocateB8ue170006EPS5_m, symObjAddr: 0x3850, symBinAddr: 0x100004890, symSize: 0x50 }
  - { offsetInCU: 0x1FF37, offset: 0x1FF37, size: 0x8, addend: 0x0, symName: __ZNSt3__117__compressed_pairIPNS_6vectorINS1_IfNS_9allocatorIfEEEENS2_IS4_EEEENS2_IS6_EEE6secondB8ue170006Ev, symObjAddr: 0x38A0, symBinAddr: 0x1000048E0, symSize: 0x20 }
  - { offsetInCU: 0x1FF5D, offset: 0x1FF5D, size: 0x8, addend: 0x0, symName: __ZNSt3__122__compressed_pair_elemINS_9allocatorINS_6vectorINS2_IfNS1_IfEEEENS1_IS4_EEEEEELi1ELb1EE5__getB8ue170006Ev, symObjAddr: 0x38C0, symBinAddr: 0x100004900, symSize: 0x10 }
  - { offsetInCU: 0x1FF83, offset: 0x1FF83, size: 0x8, addend: 0x0, symName: __ZNKSt3__16vectorINS0_INS0_IfNS_9allocatorIfEEEENS1_IS3_EEEENS1_IS5_EEE9__end_capB8ue170006Ev, symObjAddr: 0x38D0, symBinAddr: 0x100004910, symSize: 0x20 }
  - { offsetInCU: 0x1FFA9, offset: 0x1FFA9, size: 0x8, addend: 0x0, symName: __ZNKSt3__117__compressed_pairIPNS_6vectorINS1_IfNS_9allocatorIfEEEENS2_IS4_EEEENS2_IS6_EEE5firstB8ue170006Ev, symObjAddr: 0x38F0, symBinAddr: 0x100004930, symSize: 0x20 }
  - { offsetInCU: 0x1FFCF, offset: 0x1FFCF, size: 0x8, addend: 0x0, symName: __ZNKSt3__122__compressed_pair_elemIPNS_6vectorINS1_IfNS_9allocatorIfEEEENS2_IS4_EEEELi0ELb0EE5__getB8ue170006Ev, symObjAddr: 0x3910, symBinAddr: 0x100004950, symSize: 0x10 }
  - { offsetInCU: 0x1FFF5, offset: 0x1FFF5, size: 0x8, addend: 0x0, symName: __ZNSt3__16vectorINS0_IfNS_9allocatorIfEEEENS1_IS3_EEED2B8ue170006Ev, symObjAddr: 0x3920, symBinAddr: 0x100004960, symSize: 0x40 }
  - { offsetInCU: 0x2001F, offset: 0x2001F, size: 0x8, addend: 0x0, symName: __ZNSt3__16vectorINS0_IfNS_9allocatorIfEEEENS1_IS3_EEE16__destroy_vectorC1B8ue170006ERS5_, symObjAddr: 0x3960, symBinAddr: 0x1000049A0, symSize: 0x30 }
  - { offsetInCU: 0x20058, offset: 0x20058, size: 0x8, addend: 0x0, symName: __ZNSt3__16vectorINS0_IfNS_9allocatorIfEEEENS1_IS3_EEE16__destroy_vectorclB8ue170006Ev, symObjAddr: 0x3990, symBinAddr: 0x1000049D0, symSize: 0x80 }
  - { offsetInCU: 0x2007E, offset: 0x2007E, size: 0x8, addend: 0x0, symName: __ZNSt3__16vectorINS0_IfNS_9allocatorIfEEEENS1_IS3_EEE16__destroy_vectorC2B8ue170006ERS5_, symObjAddr: 0x3A10, symBinAddr: 0x100004A50, symSize: 0x20 }
  - { offsetInCU: 0x200B7, offset: 0x200B7, size: 0x8, addend: 0x0, symName: __ZNSt3__16vectorINS0_IfNS_9allocatorIfEEEENS1_IS3_EEE7__clearB8ue170006Ev, symObjAddr: 0x3A30, symBinAddr: 0x100004A70, symSize: 0x20 }
  - { offsetInCU: 0x200DD, offset: 0x200DD, size: 0x8, addend: 0x0, symName: __ZNKSt3__16vectorINS0_IfNS_9allocatorIfEEEENS1_IS3_EEE17__annotate_deleteB8ue170006Ev, symObjAddr: 0x3A50, symBinAddr: 0x100004A90, symSize: 0xB0 }
  - { offsetInCU: 0x20103, offset: 0x20103, size: 0x8, addend: 0x0, symName: __ZNSt3__116allocator_traitsINS_9allocatorINS_6vectorIfNS1_IfEEEEEEE10deallocateB8ue170006ERS5_PS4_m, symObjAddr: 0x3B00, symBinAddr: 0x100004B40, symSize: 0x30 }
  - { offsetInCU: 0x20145, offset: 0x20145, size: 0x8, addend: 0x0, symName: __ZNSt3__16vectorINS0_IfNS_9allocatorIfEEEENS1_IS3_EEE7__allocB8ue170006Ev, symObjAddr: 0x3B30, symBinAddr: 0x100004B70, symSize: 0x20 }
  - { offsetInCU: 0x2016B, offset: 0x2016B, size: 0x8, addend: 0x0, symName: __ZNKSt3__16vectorINS0_IfNS_9allocatorIfEEEENS1_IS3_EEE8capacityB8ue170006Ev, symObjAddr: 0x3B50, symBinAddr: 0x100004B90, symSize: 0x40 }
  - { offsetInCU: 0x20191, offset: 0x20191, size: 0x8, addend: 0x0, symName: __ZNSt3__16vectorINS0_IfNS_9allocatorIfEEEENS1_IS3_EEE22__base_destruct_at_endB8ue170006EPS3_, symObjAddr: 0x3B90, symBinAddr: 0x100004BD0, symSize: 0x80 }
  - { offsetInCU: 0x201D5, offset: 0x201D5, size: 0x8, addend: 0x0, symName: __ZNSt3__116allocator_traitsINS_9allocatorINS_6vectorIfNS1_IfEEEEEEE7destroyB8ue170006IS4_vvEEvRS5_PT_, symObjAddr: 0x3C10, symBinAddr: 0x100004C50, symSize: 0x20 }
  - { offsetInCU: 0x2020F, offset: 0x2020F, size: 0x8, addend: 0x0, symName: __ZNKSt3__16vectorINS0_IfNS_9allocatorIfEEEENS1_IS3_EEE31__annotate_contiguous_containerB8ue170006EPKvS7_S7_S7_, symObjAddr: 0x3C80, symBinAddr: 0x100004CC0, symSize: 0x20 }
  - { offsetInCU: 0x20261, offset: 0x20261, size: 0x8, addend: 0x0, symName: __ZNKSt3__16vectorINS0_IfNS_9allocatorIfEEEENS1_IS3_EEE4dataB8ue170006Ev, symObjAddr: 0x3CA0, symBinAddr: 0x100004CE0, symSize: 0x20 }
  - { offsetInCU: 0x20287, offset: 0x20287, size: 0x8, addend: 0x0, symName: __ZNKSt3__16vectorINS0_IfNS_9allocatorIfEEEENS1_IS3_EEE4sizeB8ue170006Ev, symObjAddr: 0x3CC0, symBinAddr: 0x100004D00, symSize: 0x30 }
  - { offsetInCU: 0x202AD, offset: 0x202AD, size: 0x8, addend: 0x0, symName: __ZNSt3__19allocatorINS_6vectorIfNS0_IfEEEEE10deallocateB8ue170006EPS3_m, symObjAddr: 0x3CF0, symBinAddr: 0x100004D30, symSize: 0x50 }
  - { offsetInCU: 0x202EF, offset: 0x202EF, size: 0x8, addend: 0x0, symName: __ZNSt3__117__compressed_pairIPNS_6vectorIfNS_9allocatorIfEEEENS2_IS4_EEE6secondB8ue170006Ev, symObjAddr: 0x3D40, symBinAddr: 0x100004D80, symSize: 0x20 }
  - { offsetInCU: 0x20315, offset: 0x20315, size: 0x8, addend: 0x0, symName: __ZNSt3__122__compressed_pair_elemINS_9allocatorINS_6vectorIfNS1_IfEEEEEELi1ELb1EE5__getB8ue170006Ev, symObjAddr: 0x3D60, symBinAddr: 0x100004DA0, symSize: 0x10 }
  - { offsetInCU: 0x2033B, offset: 0x2033B, size: 0x8, addend: 0x0, symName: __ZNKSt3__16vectorINS0_IfNS_9allocatorIfEEEENS1_IS3_EEE9__end_capB8ue170006Ev, symObjAddr: 0x3D70, symBinAddr: 0x100004DB0, symSize: 0x20 }
  - { offsetInCU: 0x20361, offset: 0x20361, size: 0x8, addend: 0x0, symName: __ZNKSt3__117__compressed_pairIPNS_6vectorIfNS_9allocatorIfEEEENS2_IS4_EEE5firstB8ue170006Ev, symObjAddr: 0x3D90, symBinAddr: 0x100004DD0, symSize: 0x20 }
  - { offsetInCU: 0x20387, offset: 0x20387, size: 0x8, addend: 0x0, symName: __ZNKSt3__122__compressed_pair_elemIPNS_6vectorIfNS_9allocatorIfEEEELi0ELb0EE5__getB8ue170006Ev, symObjAddr: 0x3DB0, symBinAddr: 0x100004DF0, symSize: 0x10 }
  - { offsetInCU: 0x203AD, offset: 0x203AD, size: 0x8, addend: 0x0, symName: __ZNSt3__16vectorIiNS_9allocatorIiEEED2B8ue170006Ev, symObjAddr: 0x3DC0, symBinAddr: 0x100004E00, symSize: 0x40 }
  - { offsetInCU: 0x203D7, offset: 0x203D7, size: 0x8, addend: 0x0, symName: __ZNSt3__16vectorIiNS_9allocatorIiEEE16__destroy_vectorC1B8ue170006ERS3_, symObjAddr: 0x3E00, symBinAddr: 0x100004E40, symSize: 0x30 }
  - { offsetInCU: 0x20410, offset: 0x20410, size: 0x8, addend: 0x0, symName: __ZNSt3__16vectorIiNS_9allocatorIiEEE16__destroy_vectorclB8ue170006Ev, symObjAddr: 0x3E30, symBinAddr: 0x100004E70, symSize: 0x80 }
  - { offsetInCU: 0x20436, offset: 0x20436, size: 0x8, addend: 0x0, symName: __ZNSt3__16vectorIiNS_9allocatorIiEEE16__destroy_vectorC2B8ue170006ERS3_, symObjAddr: 0x3EB0, symBinAddr: 0x100004EF0, symSize: 0x20 }
  - { offsetInCU: 0x2046F, offset: 0x2046F, size: 0x8, addend: 0x0, symName: __ZNSt3__16vectorIiNS_9allocatorIiEEE7__clearB8ue170006Ev, symObjAddr: 0x3ED0, symBinAddr: 0x100004F10, symSize: 0x20 }
  - { offsetInCU: 0x20495, offset: 0x20495, size: 0x8, addend: 0x0, symName: __ZNKSt3__16vectorIiNS_9allocatorIiEEE17__annotate_deleteB8ue170006Ev, symObjAddr: 0x3EF0, symBinAddr: 0x100004F30, symSize: 0xB0 }
  - { offsetInCU: 0x204BB, offset: 0x204BB, size: 0x8, addend: 0x0, symName: __ZNSt3__116allocator_traitsINS_9allocatorIiEEE10deallocateB8ue170006ERS2_Pim, symObjAddr: 0x3FA0, symBinAddr: 0x100004FE0, symSize: 0x30 }
  - { offsetInCU: 0x204FD, offset: 0x204FD, size: 0x8, addend: 0x0, symName: __ZNSt3__16vectorIiNS_9allocatorIiEEE7__allocB8ue170006Ev, symObjAddr: 0x3FD0, symBinAddr: 0x100005010, symSize: 0x20 }
  - { offsetInCU: 0x20523, offset: 0x20523, size: 0x8, addend: 0x0, symName: __ZNKSt3__16vectorIiNS_9allocatorIiEEE8capacityB8ue170006Ev, symObjAddr: 0x3FF0, symBinAddr: 0x100005030, symSize: 0x30 }
  - { offsetInCU: 0x20549, offset: 0x20549, size: 0x8, addend: 0x0, symName: __ZNSt3__16vectorIiNS_9allocatorIiEEE22__base_destruct_at_endB8ue170006EPi, symObjAddr: 0x4020, symBinAddr: 0x100005060, symSize: 0x80 }
  - { offsetInCU: 0x2058D, offset: 0x2058D, size: 0x8, addend: 0x0, symName: __ZNSt3__116allocator_traitsINS_9allocatorIiEEE7destroyB8ue170006IivvEEvRS2_PT_, symObjAddr: 0x40A0, symBinAddr: 0x1000050E0, symSize: 0x20 }
  - { offsetInCU: 0x205C7, offset: 0x205C7, size: 0x8, addend: 0x0, symName: __ZNKSt3__16vectorIiNS_9allocatorIiEEE31__annotate_contiguous_containerB8ue170006EPKvS5_S5_S5_, symObjAddr: 0x4100, symBinAddr: 0x100005140, symSize: 0x20 }
  - { offsetInCU: 0x20619, offset: 0x20619, size: 0x8, addend: 0x0, symName: __ZNKSt3__16vectorIiNS_9allocatorIiEEE4dataB8ue170006Ev, symObjAddr: 0x4120, symBinAddr: 0x100005160, symSize: 0x20 }
  - { offsetInCU: 0x2063F, offset: 0x2063F, size: 0x8, addend: 0x0, symName: __ZNKSt3__16vectorIiNS_9allocatorIiEEE4sizeB8ue170006Ev, symObjAddr: 0x4140, symBinAddr: 0x100005180, symSize: 0x20 }
  - { offsetInCU: 0x20665, offset: 0x20665, size: 0x8, addend: 0x0, symName: __ZNSt3__19allocatorIiE10deallocateB8ue170006EPim, symObjAddr: 0x4160, symBinAddr: 0x1000051A0, symSize: 0x40 }
  - { offsetInCU: 0x206A7, offset: 0x206A7, size: 0x8, addend: 0x0, symName: __ZNSt3__117__compressed_pairIPiNS_9allocatorIiEEE6secondB8ue170006Ev, symObjAddr: 0x41A0, symBinAddr: 0x1000051E0, symSize: 0x20 }
  - { offsetInCU: 0x206CD, offset: 0x206CD, size: 0x8, addend: 0x0, symName: __ZNSt3__122__compressed_pair_elemINS_9allocatorIiEELi1ELb1EE5__getB8ue170006Ev, symObjAddr: 0x41C0, symBinAddr: 0x100005200, symSize: 0x10 }
  - { offsetInCU: 0x206F3, offset: 0x206F3, size: 0x8, addend: 0x0, symName: __ZNKSt3__16vectorIiNS_9allocatorIiEEE9__end_capB8ue170006Ev, symObjAddr: 0x41D0, symBinAddr: 0x100005210, symSize: 0x20 }
  - { offsetInCU: 0x20719, offset: 0x20719, size: 0x8, addend: 0x0, symName: __ZNKSt3__117__compressed_pairIPiNS_9allocatorIiEEE5firstB8ue170006Ev, symObjAddr: 0x41F0, symBinAddr: 0x100005230, symSize: 0x20 }
  - { offsetInCU: 0x2073F, offset: 0x2073F, size: 0x8, addend: 0x0, symName: __ZNKSt3__122__compressed_pair_elemIPiLi0ELb0EE5__getB8ue170006Ev, symObjAddr: 0x4210, symBinAddr: 0x100005250, symSize: 0x10 }
  - { offsetInCU: 0x20765, offset: 0x20765, size: 0x8, addend: 0x0, symName: __ZNSt3__112basic_stringIcNS_11char_traitsIcEENS_9allocatorIcEEEC2B8ue170006Ev, symObjAddr: 0x4220, symBinAddr: 0x100005260, symSize: 0x50 }
  - { offsetInCU: 0x2078F, offset: 0x2078F, size: 0x8, addend: 0x0, symName: __ZNSt3__112basic_stringIcNS_11char_traitsIcEENS_9allocatorIcEEE14__default_initB8ue170006Ev, symObjAddr: 0x4270, symBinAddr: 0x1000052B0, symSize: 0x50 }
  - { offsetInCU: 0x207B5, offset: 0x207B5, size: 0x8, addend: 0x0, symName: __ZNSt3__117__compressed_pairINS_12basic_stringIcNS_11char_traitsIcEENS_9allocatorIcEEE5__repES5_E5firstB8ue170006Ev, symObjAddr: 0x42C0, symBinAddr: 0x100005300, symSize: 0x20 }
  - { offsetInCU: 0x207DB, offset: 0x207DB, size: 0x8, addend: 0x0, symName: __ZNSt3__122__compressed_pair_elemINS_12basic_stringIcNS_11char_traitsIcEENS_9allocatorIcEEE5__repELi0ELb0EE5__getB8ue170006Ev, symObjAddr: 0x42E0, symBinAddr: 0x100005320, symSize: 0x10 }
  - { offsetInCU: 0x20801, offset: 0x20801, size: 0x8, addend: 0x0, symName: __ZNSt3__16vectorIiNS_9allocatorIiEEE9__end_capB8ue170006Ev, symObjAddr: 0x42F0, symBinAddr: 0x100005330, symSize: 0x20 }
  - { offsetInCU: 0x2082D, offset: 0x2082D, size: 0x8, addend: 0x0, symName: __ZNSt3__16vectorIiNS_9allocatorIiEEE22__construct_one_at_endB8ue170006IJiEEEvDpOT_, symObjAddr: 0x4310, symBinAddr: 0x100005350, symSize: 0x90 }
  - { offsetInCU: 0x2087C, offset: 0x2087C, size: 0x8, addend: 0x0, symName: __ZNSt3__16vectorIiNS_9allocatorIiEEE21__push_back_slow_pathIiEEvOT_, symObjAddr: 0x43A0, symBinAddr: 0x1000053E0, symSize: 0xD0 }
  - { offsetInCU: 0x208DA, offset: 0x208DA, size: 0x8, addend: 0x0, symName: __ZNSt3__117__compressed_pairIPiNS_9allocatorIiEEE5firstB8ue170006Ev, symObjAddr: 0x4470, symBinAddr: 0x1000054B0, symSize: 0x20 }
  - { offsetInCU: 0x20900, offset: 0x20900, size: 0x8, addend: 0x0, symName: __ZNSt3__122__compressed_pair_elemIPiLi0ELb0EE5__getB8ue170006Ev, symObjAddr: 0x4490, symBinAddr: 0x1000054D0, symSize: 0x10 }
  - { offsetInCU: 0x20941, offset: 0x20941, size: 0x8, addend: 0x0, symName: __ZNSt3__16vectorIiNS_9allocatorIiEEE21_ConstructTransactionC1B8ue170006ERS3_m, symObjAddr: 0x44A0, symBinAddr: 0x1000054E0, symSize: 0x30 }
  - { offsetInCU: 0x20989, offset: 0x20989, size: 0x8, addend: 0x0, symName: __ZNSt3__116allocator_traitsINS_9allocatorIiEEE9constructB8ue170006IiJiEvvEEvRS2_PT_DpOT0_, symObjAddr: 0x44D0, symBinAddr: 0x100005510, symSize: 0x30 }
  - { offsetInCU: 0x209DD, offset: 0x209DD, size: 0x8, addend: 0x0, symName: __ZNSt3__16vectorIiNS_9allocatorIiEEE21_ConstructTransactionD1B8ue170006Ev, symObjAddr: 0x4500, symBinAddr: 0x100005540, symSize: 0x20 }
  - { offsetInCU: 0x20A07, offset: 0x20A07, size: 0x8, addend: 0x0, symName: __ZNSt3__16vectorIiNS_9allocatorIiEEE21_ConstructTransactionC2B8ue170006ERS3_m, symObjAddr: 0x4520, symBinAddr: 0x100005560, symSize: 0x40 }
  - { offsetInCU: 0x20A4F, offset: 0x20A4F, size: 0x8, addend: 0x0, symName: __ZNSt3__16vectorIiNS_9allocatorIiEEE21_ConstructTransactionD2B8ue170006Ev, symObjAddr: 0x4590, symBinAddr: 0x1000055D0, symSize: 0x20 }
  - { offsetInCU: 0x20A79, offset: 0x20A79, size: 0x8, addend: 0x0, symName: __ZNKSt3__16vectorIiNS_9allocatorIiEEE11__recommendB8ue170006Em, symObjAddr: 0x45B0, symBinAddr: 0x1000055F0, symSize: 0xA0 }
  - { offsetInCU: 0x20ACE, offset: 0x20ACE, size: 0x8, addend: 0x0, symName: __ZNSt3__114__split_bufferIiRNS_9allocatorIiEEEC1EmmS3_, symObjAddr: 0x4650, symBinAddr: 0x100005690, symSize: 0x40 }
  - { offsetInCU: 0x20B24, offset: 0x20B24, size: 0x8, addend: 0x0, symName: __ZNSt3__114__split_bufferIiRNS_9allocatorIiEEED1Ev, symObjAddr: 0x47B0, symBinAddr: 0x1000057F0, symSize: 0x20 }
  - { offsetInCU: 0x20B50, offset: 0x20B50, size: 0x8, addend: 0x0, symName: __ZNKSt3__16vectorIiNS_9allocatorIiEEE8max_sizeEv, symObjAddr: 0x47D0, symBinAddr: 0x100005810, symSize: 0x60 }
  - { offsetInCU: 0x20B78, offset: 0x20B78, size: 0x8, addend: 0x0, symName: __ZNKSt3__16vectorIiNS_9allocatorIiEEE20__throw_length_errorB8ue170006Ev, symObjAddr: 0x4830, symBinAddr: 0x100005870, symSize: 0x20 }
  - { offsetInCU: 0x20BA9, offset: 0x20BA9, size: 0x8, addend: 0x0, symName: __ZNSt3__116allocator_traitsINS_9allocatorIiEEE8max_sizeB8ue170006IS2_vvEEmRKS2_, symObjAddr: 0x4880, symBinAddr: 0x1000058C0, symSize: 0x20 }
  - { offsetInCU: 0x20BD4, offset: 0x20BD4, size: 0x8, addend: 0x0, symName: __ZNKSt3__16vectorIiNS_9allocatorIiEEE7__allocB8ue170006Ev, symObjAddr: 0x48A0, symBinAddr: 0x1000058E0, symSize: 0x20 }
  - { offsetInCU: 0x20BFA, offset: 0x20BFA, size: 0x8, addend: 0x0, symName: __ZNKSt3__117__compressed_pairIPiNS_9allocatorIiEEE6secondB8ue170006Ev, symObjAddr: 0x48C0, symBinAddr: 0x100005900, symSize: 0x20 }
  - { offsetInCU: 0x20C20, offset: 0x20C20, size: 0x8, addend: 0x0, symName: __ZNKSt3__122__compressed_pair_elemINS_9allocatorIiEELi1ELb1EE5__getB8ue170006Ev, symObjAddr: 0x48E0, symBinAddr: 0x100005920, symSize: 0x10 }
  - { offsetInCU: 0x20C46, offset: 0x20C46, size: 0x8, addend: 0x0, symName: __ZNSt3__114__split_bufferIiRNS_9allocatorIiEEEC2EmmS3_, symObjAddr: 0x4940, symBinAddr: 0x100005980, symSize: 0xD0 }
  - { offsetInCU: 0x20CB9, offset: 0x20CB9, size: 0x8, addend: 0x0, symName: __ZNSt3__117__compressed_pairIPiRNS_9allocatorIiEEEC1B8ue170006IDnS4_EEOT_OT0_, symObjAddr: 0x4A10, symBinAddr: 0x100005A50, symSize: 0x30 }
  - { offsetInCU: 0x20D11, offset: 0x20D11, size: 0x8, addend: 0x0, symName: __ZNSt3__114__split_bufferIiRNS_9allocatorIiEEE7__allocB8ue170006Ev, symObjAddr: 0x4A80, symBinAddr: 0x100005AC0, symSize: 0x20 }
  - { offsetInCU: 0x20D37, offset: 0x20D37, size: 0x8, addend: 0x0, symName: __ZNSt3__114__split_bufferIiRNS_9allocatorIiEEE9__end_capB8ue170006Ev, symObjAddr: 0x4AA0, symBinAddr: 0x100005AE0, symSize: 0x20 }
  - { offsetInCU: 0x20D5D, offset: 0x20D5D, size: 0x8, addend: 0x0, symName: __ZNSt3__117__compressed_pairIPiRNS_9allocatorIiEEEC2B8ue170006IDnS4_EEOT_OT0_, symObjAddr: 0x4AC0, symBinAddr: 0x100005B00, symSize: 0x40 }
  - { offsetInCU: 0x20DB5, offset: 0x20DB5, size: 0x8, addend: 0x0, symName: __ZNSt3__122__compressed_pair_elemIRNS_9allocatorIiEELi1ELb0EEC2B8ue170006IS3_vEEOT_, symObjAddr: 0x4B00, symBinAddr: 0x100005B40, symSize: 0x20 }
  - { offsetInCU: 0x20DF7, offset: 0x20DF7, size: 0x8, addend: 0x0, symName: __ZNSt3__19allocatorIiE17allocate_at_leastB8ue170006Em, symObjAddr: 0x4B60, symBinAddr: 0x100005BA0, symSize: 0x40 }
  - { offsetInCU: 0x20E2B, offset: 0x20E2B, size: 0x8, addend: 0x0, symName: __ZNSt3__19allocatorIiE8allocateB8ue170006Em, symObjAddr: 0x4BA0, symBinAddr: 0x100005BE0, symSize: 0x50 }
  - { offsetInCU: 0x20E5F, offset: 0x20E5F, size: 0x8, addend: 0x0, symName: __ZNSt3__117__compressed_pairIPiRNS_9allocatorIiEEE6secondB8ue170006Ev, symObjAddr: 0x4BF0, symBinAddr: 0x100005C30, symSize: 0x20 }
  - { offsetInCU: 0x20E85, offset: 0x20E85, size: 0x8, addend: 0x0, symName: __ZNSt3__122__compressed_pair_elemIRNS_9allocatorIiEELi1ELb0EE5__getB8ue170006Ev, symObjAddr: 0x4C10, symBinAddr: 0x100005C50, symSize: 0x20 }
  - { offsetInCU: 0x20EAB, offset: 0x20EAB, size: 0x8, addend: 0x0, symName: __ZNSt3__117__compressed_pairIPiRNS_9allocatorIiEEE5firstB8ue170006Ev, symObjAddr: 0x4C30, symBinAddr: 0x100005C70, symSize: 0x20 }
  - { offsetInCU: 0x20ED1, offset: 0x20ED1, size: 0x8, addend: 0x0, symName: __ZNSt3__116reverse_iteratorIPiEC1B8ue170006ES1_, symObjAddr: 0x4CC0, symBinAddr: 0x100005D00, symSize: 0x30 }
  - { offsetInCU: 0x20F09, offset: 0x20F09, size: 0x8, addend: 0x0, symName: __ZNKSt3__116reverse_iteratorIPiE4baseB8ue170006Ev, symObjAddr: 0x4CF0, symBinAddr: 0x100005D30, symSize: 0x20 }
  - { offsetInCU: 0x20F2F, offset: 0x20F2F, size: 0x8, addend: 0x0, symName: __ZNKSt3__16vectorIiNS_9allocatorIiEEE14__annotate_newB8ue170006Em, symObjAddr: 0x4D50, symBinAddr: 0x100005D90, symSize: 0xB0 }
  - { offsetInCU: 0x20F8F, offset: 0x20F8F, size: 0x8, addend: 0x0, symName: __ZNKSt3__111__move_loopINS_17_ClassicAlgPolicyEEclB8ue170006INS_16reverse_iteratorIPiEES6_S6_EENS_4pairIT_T1_EES8_T0_S9_, symObjAddr: 0x5210, symBinAddr: 0x100006250, symSize: 0xA0 }
  - { offsetInCU: 0x20FFA, offset: 0x20FFA, size: 0x8, addend: 0x0, symName: __ZNSt3__119__unwrap_range_implINS_16reverse_iteratorIPiEES3_E8__unwrapB8ue170006ES3_S3_, symObjAddr: 0x53F0, symBinAddr: 0x100006430, symSize: 0x90 }
  - { offsetInCU: 0x21031, offset: 0x21031, size: 0x8, addend: 0x0, symName: __ZNSt3__14pairINS_16reverse_iteratorIPiEES3_EC1B8ue170006IS3_S3_LPv0EEEOT_OT0_, symObjAddr: 0x5480, symBinAddr: 0x1000064C0, symSize: 0x30 }
  - { offsetInCU: 0x2108F, offset: 0x2108F, size: 0x8, addend: 0x0, symName: __ZNSt3__14pairINS_16reverse_iteratorIPiEES3_EC2B8ue170006IS3_S3_LPv0EEEOT_OT0_, symObjAddr: 0x54B0, symBinAddr: 0x1000064F0, symSize: 0x40 }
  - { offsetInCU: 0x210ED, offset: 0x210ED, size: 0x8, addend: 0x0, symName: __ZNSt3__18_IterOpsINS_17_ClassicAlgPolicyEE11__iter_moveB8ue170006IRNS_16reverse_iteratorIPiEEEENS_9enable_ifIXsr12is_referenceIDTdeclsr3stdE7declvalIRT_EEEEE5valueEDTclsr3stdE4movedeclsr3stdE7declvalISA_EEEEE4typeEOS9_, symObjAddr: 0x5530, symBinAddr: 0x100006570, symSize: 0x20 }
  - { offsetInCU: 0x21119, offset: 0x21119, size: 0x8, addend: 0x0, symName: __ZNKSt3__116reverse_iteratorIPiEdeB8ue170006Ev, symObjAddr: 0x5550, symBinAddr: 0x100006590, symSize: 0x30 }
  - { offsetInCU: 0x2114D, offset: 0x2114D, size: 0x8, addend: 0x0, symName: __ZNSt3__116reverse_iteratorIPiEppB8ue170006Ev, symObjAddr: 0x5580, symBinAddr: 0x1000065C0, symSize: 0x20 }
  - { offsetInCU: 0x21173, offset: 0x21173, size: 0x8, addend: 0x0, symName: __ZNSt3__18_IterOpsINS_17_ClassicAlgPolicyEE25__validate_iter_referenceB8ue170006IRNS_16reverse_iteratorIPiEEEEvv, symObjAddr: 0x55A0, symBinAddr: 0x1000065E0, symSize: 0x10 }
  - { offsetInCU: 0x21191, offset: 0x21191, size: 0x8, addend: 0x0, symName: __ZNSt3__118__unwrap_iter_implINS_16reverse_iteratorIPiEELb0EE8__unwrapB8ue170006ES3_, symObjAddr: 0x55B0, symBinAddr: 0x1000065F0, symSize: 0x20 }
  - { offsetInCU: 0x211B4, offset: 0x211B4, size: 0x8, addend: 0x0, symName: __ZNSt3__119__unwrap_range_implINS_16reverse_iteratorIPiEES3_E8__rewrapB8ue170006ES3_S3_, symObjAddr: 0x55D0, symBinAddr: 0x100006610, symSize: 0x60 }
  - { offsetInCU: 0x211E5, offset: 0x211E5, size: 0x8, addend: 0x0, symName: __ZNSt3__118__unwrap_iter_implINS_16reverse_iteratorIPiEELb0EE8__rewrapB8ue170006ES3_S3_, symObjAddr: 0x5630, symBinAddr: 0x100006670, symSize: 0x30 }
  - { offsetInCU: 0x21212, offset: 0x21212, size: 0x8, addend: 0x0, symName: __ZNSt3__116reverse_iteratorIPiEC2B8ue170006ES1_, symObjAddr: 0x5660, symBinAddr: 0x1000066A0, symSize: 0x30 }
  - { offsetInCU: 0x2124A, offset: 0x2124A, size: 0x8, addend: 0x0, symName: __ZNSt3__114__split_bufferIiRNS_9allocatorIiEEED2Ev, symObjAddr: 0x5690, symBinAddr: 0x1000066D0, symSize: 0x70 }
  - { offsetInCU: 0x21276, offset: 0x21276, size: 0x8, addend: 0x0, symName: __ZNSt3__114__split_bufferIiRNS_9allocatorIiEEE5clearB8ue170006Ev, symObjAddr: 0x5700, symBinAddr: 0x100006740, symSize: 0x20 }
  - { offsetInCU: 0x2129C, offset: 0x2129C, size: 0x8, addend: 0x0, symName: __ZNKSt3__114__split_bufferIiRNS_9allocatorIiEEE8capacityB8ue170006Ev, symObjAddr: 0x5720, symBinAddr: 0x100006760, symSize: 0x30 }
  - { offsetInCU: 0x212C2, offset: 0x212C2, size: 0x8, addend: 0x0, symName: __ZNSt3__114__split_bufferIiRNS_9allocatorIiEEE17__destruct_at_endB8ue170006EPi, symObjAddr: 0x5750, symBinAddr: 0x100006790, symSize: 0x30 }
  - { offsetInCU: 0x212F6, offset: 0x212F6, size: 0x8, addend: 0x0, symName: __ZNSt3__114__split_bufferIiRNS_9allocatorIiEEE17__destruct_at_endB8ue170006EPiNS_17integral_constantIbLb0EEE, symObjAddr: 0x5780, symBinAddr: 0x1000067C0, symSize: 0x80 }
  - { offsetInCU: 0x21336, offset: 0x21336, size: 0x8, addend: 0x0, symName: __ZNKSt3__114__split_bufferIiRNS_9allocatorIiEEE9__end_capB8ue170006Ev, symObjAddr: 0x5800, symBinAddr: 0x100006840, symSize: 0x20 }
  - { offsetInCU: 0x2135C, offset: 0x2135C, size: 0x8, addend: 0x0, symName: __ZNKSt3__117__compressed_pairIPiRNS_9allocatorIiEEE5firstB8ue170006Ev, symObjAddr: 0x5820, symBinAddr: 0x100006860, symSize: 0x20 }
  - { offsetInCU: 0x21382, offset: 0x21382, size: 0x8, addend: 0x0, symName: __ZNSt3__16vectorINS0_IfNS_9allocatorIfEEEENS1_IS3_EEE9__end_capB8ue170006Ev, symObjAddr: 0x5840, symBinAddr: 0x100006880, symSize: 0x20 }
  - { offsetInCU: 0x213A8, offset: 0x213A8, size: 0x8, addend: 0x0, symName: __ZNSt3__16vectorINS0_IfNS_9allocatorIfEEEENS1_IS3_EEE22__construct_one_at_endB8ue170006IJS3_EEEvDpOT_, symObjAddr: 0x5860, symBinAddr: 0x1000068A0, symSize: 0x90 }
  - { offsetInCU: 0x213F7, offset: 0x213F7, size: 0x8, addend: 0x0, symName: __ZNSt3__16vectorINS0_IfNS_9allocatorIfEEEENS1_IS3_EEE21__push_back_slow_pathIS3_EEvOT_, symObjAddr: 0x58F0, symBinAddr: 0x100006930, symSize: 0xD0 }
  - { offsetInCU: 0x21455, offset: 0x21455, size: 0x8, addend: 0x0, symName: __ZNSt3__117__compressed_pairIPNS_6vectorIfNS_9allocatorIfEEEENS2_IS4_EEE5firstB8ue170006Ev, symObjAddr: 0x59C0, symBinAddr: 0x100006A00, symSize: 0x20 }
  - { offsetInCU: 0x2147B, offset: 0x2147B, size: 0x8, addend: 0x0, symName: __ZNSt3__122__compressed_pair_elemIPNS_6vectorIfNS_9allocatorIfEEEELi0ELb0EE5__getB8ue170006Ev, symObjAddr: 0x59E0, symBinAddr: 0x100006A20, symSize: 0x10 }
  - { offsetInCU: 0x214BC, offset: 0x214BC, size: 0x8, addend: 0x0, symName: __ZNSt3__16vectorINS0_IfNS_9allocatorIfEEEENS1_IS3_EEE21_ConstructTransactionC1B8ue170006ERS5_m, symObjAddr: 0x59F0, symBinAddr: 0x100006A30, symSize: 0x30 }
  - { offsetInCU: 0x21504, offset: 0x21504, size: 0x8, addend: 0x0, symName: __ZNSt3__116allocator_traitsINS_9allocatorINS_6vectorIfNS1_IfEEEEEEE9constructB8ue170006IS4_JS4_EvvEEvRS5_PT_DpOT0_, symObjAddr: 0x5A20, symBinAddr: 0x100006A60, symSize: 0x30 }
  - { offsetInCU: 0x21558, offset: 0x21558, size: 0x8, addend: 0x0, symName: __ZNSt3__16vectorINS0_IfNS_9allocatorIfEEEENS1_IS3_EEE21_ConstructTransactionD1B8ue170006Ev, symObjAddr: 0x5A50, symBinAddr: 0x100006A90, symSize: 0x20 }
  - { offsetInCU: 0x21582, offset: 0x21582, size: 0x8, addend: 0x0, symName: __ZNSt3__16vectorINS0_IfNS_9allocatorIfEEEENS1_IS3_EEE21_ConstructTransactionC2B8ue170006ERS5_m, symObjAddr: 0x5A70, symBinAddr: 0x100006AB0, symSize: 0x40 }
  - { offsetInCU: 0x215CA, offset: 0x215CA, size: 0x8, addend: 0x0, symName: __ZNSt3__16vectorIfNS_9allocatorIfEEEC1B8ue170006EOS3_, symObjAddr: 0x5AF0, symBinAddr: 0x100006B30, symSize: 0x30 }
  - { offsetInCU: 0x21605, offset: 0x21605, size: 0x8, addend: 0x0, symName: __ZNSt3__16vectorIfNS_9allocatorIfEEEC2B8ue170006EOS3_, symObjAddr: 0x5B20, symBinAddr: 0x100006B60, symSize: 0xD0 }
  - { offsetInCU: 0x21646, offset: 0x21646, size: 0x8, addend: 0x0, symName: __ZNSt3__117__compressed_pairIPfNS_9allocatorIfEEEC1B8ue170006IDnS3_EEOT_OT0_, symObjAddr: 0x5BF0, symBinAddr: 0x100006C30, symSize: 0x30 }
  - { offsetInCU: 0x2169E, offset: 0x2169E, size: 0x8, addend: 0x0, symName: __ZNSt3__117__compressed_pairIPfNS_9allocatorIfEEEC2B8ue170006IDnS3_EEOT_OT0_, symObjAddr: 0x5C20, symBinAddr: 0x100006C60, symSize: 0x40 }
  - { offsetInCU: 0x216F6, offset: 0x216F6, size: 0x8, addend: 0x0, symName: __ZNSt3__122__compressed_pair_elemINS_9allocatorIfEELi1ELb1EEC2B8ue170006IS2_vEEOT_, symObjAddr: 0x5C60, symBinAddr: 0x100006CA0, symSize: 0x10 }
  - { offsetInCU: 0x21738, offset: 0x21738, size: 0x8, addend: 0x0, symName: __ZNSt3__16vectorINS0_IfNS_9allocatorIfEEEENS1_IS3_EEE21_ConstructTransactionD2B8ue170006Ev, symObjAddr: 0x5C70, symBinAddr: 0x100006CB0, symSize: 0x20 }
  - { offsetInCU: 0x21762, offset: 0x21762, size: 0x8, addend: 0x0, symName: __ZNKSt3__16vectorINS0_IfNS_9allocatorIfEEEENS1_IS3_EEE11__recommendB8ue170006Em, symObjAddr: 0x5C90, symBinAddr: 0x100006CD0, symSize: 0xA0 }
  - { offsetInCU: 0x217B7, offset: 0x217B7, size: 0x8, addend: 0x0, symName: __ZNSt3__114__split_bufferINS_6vectorIfNS_9allocatorIfEEEERNS2_IS4_EEEC1EmmS6_, symObjAddr: 0x5D30, symBinAddr: 0x100006D70, symSize: 0x40 }
  - { offsetInCU: 0x2180D, offset: 0x2180D, size: 0x8, addend: 0x0, symName: __ZNSt3__114__split_bufferINS_6vectorIfNS_9allocatorIfEEEERNS2_IS4_EEED1Ev, symObjAddr: 0x5E90, symBinAddr: 0x100006ED0, symSize: 0x20 }
  - { offsetInCU: 0x21839, offset: 0x21839, size: 0x8, addend: 0x0, symName: __ZNKSt3__16vectorINS0_IfNS_9allocatorIfEEEENS1_IS3_EEE8max_sizeEv, symObjAddr: 0x5EB0, symBinAddr: 0x100006EF0, symSize: 0x60 }
  - { offsetInCU: 0x21861, offset: 0x21861, size: 0x8, addend: 0x0, symName: __ZNKSt3__16vectorINS0_IfNS_9allocatorIfEEEENS1_IS3_EEE20__throw_length_errorB8ue170006Ev, symObjAddr: 0x5F10, symBinAddr: 0x100006F50, symSize: 0x20 }
  - { offsetInCU: 0x21892, offset: 0x21892, size: 0x8, addend: 0x0, symName: __ZNSt3__116allocator_traitsINS_9allocatorINS_6vectorIfNS1_IfEEEEEEE8max_sizeB8ue170006IS5_vvEEmRKS5_, symObjAddr: 0x5F30, symBinAddr: 0x100006F70, symSize: 0x30 }
  - { offsetInCU: 0x218BD, offset: 0x218BD, size: 0x8, addend: 0x0, symName: __ZNKSt3__16vectorINS0_IfNS_9allocatorIfEEEENS1_IS3_EEE7__allocB8ue170006Ev, symObjAddr: 0x5F60, symBinAddr: 0x100006FA0, symSize: 0x20 }
  - { offsetInCU: 0x218E3, offset: 0x218E3, size: 0x8, addend: 0x0, symName: __ZNKSt3__117__compressed_pairIPNS_6vectorIfNS_9allocatorIfEEEENS2_IS4_EEE6secondB8ue170006Ev, symObjAddr: 0x5F80, symBinAddr: 0x100006FC0, symSize: 0x20 }
  - { offsetInCU: 0x21909, offset: 0x21909, size: 0x8, addend: 0x0, symName: __ZNKSt3__122__compressed_pair_elemINS_9allocatorINS_6vectorIfNS1_IfEEEEEELi1ELb1EE5__getB8ue170006Ev, symObjAddr: 0x5FA0, symBinAddr: 0x100006FE0, symSize: 0x10 }
  - { offsetInCU: 0x2192F, offset: 0x2192F, size: 0x8, addend: 0x0, symName: __ZNSt3__114__split_bufferINS_6vectorIfNS_9allocatorIfEEEERNS2_IS4_EEEC2EmmS6_, symObjAddr: 0x5FB0, symBinAddr: 0x100006FF0, symSize: 0xC0 }
  - { offsetInCU: 0x219A2, offset: 0x219A2, size: 0x8, addend: 0x0, symName: __ZNSt3__117__compressed_pairIPNS_6vectorIfNS_9allocatorIfEEEERNS2_IS4_EEEC1B8ue170006IDnS7_EEOT_OT0_, symObjAddr: 0x6070, symBinAddr: 0x1000070B0, symSize: 0x30 }
  - { offsetInCU: 0x219FA, offset: 0x219FA, size: 0x8, addend: 0x0, symName: __ZNSt3__114__split_bufferINS_6vectorIfNS_9allocatorIfEEEERNS2_IS4_EEE7__allocB8ue170006Ev, symObjAddr: 0x60E0, symBinAddr: 0x100007120, symSize: 0x20 }
  - { offsetInCU: 0x21A20, offset: 0x21A20, size: 0x8, addend: 0x0, symName: __ZNSt3__114__split_bufferINS_6vectorIfNS_9allocatorIfEEEERNS2_IS4_EEE9__end_capB8ue170006Ev, symObjAddr: 0x6100, symBinAddr: 0x100007140, symSize: 0x20 }
  - { offsetInCU: 0x21A46, offset: 0x21A46, size: 0x8, addend: 0x0, symName: __ZNSt3__117__compressed_pairIPNS_6vectorIfNS_9allocatorIfEEEERNS2_IS4_EEEC2B8ue170006IDnS7_EEOT_OT0_, symObjAddr: 0x6120, symBinAddr: 0x100007160, symSize: 0x40 }
  - { offsetInCU: 0x21A9E, offset: 0x21A9E, size: 0x8, addend: 0x0, symName: __ZNSt3__122__compressed_pair_elemIRNS_9allocatorINS_6vectorIfNS1_IfEEEEEELi1ELb0EEC2B8ue170006IS6_vEEOT_, symObjAddr: 0x6160, symBinAddr: 0x1000071A0, symSize: 0x20 }
  - { offsetInCU: 0x21AE0, offset: 0x21AE0, size: 0x8, addend: 0x0, symName: __ZNSt3__19allocatorINS_6vectorIfNS0_IfEEEEE17allocate_at_leastB8ue170006Em, symObjAddr: 0x61C0, symBinAddr: 0x100007200, symSize: 0x40 }
  - { offsetInCU: 0x21B14, offset: 0x21B14, size: 0x8, addend: 0x0, symName: __ZNSt3__19allocatorINS_6vectorIfNS0_IfEEEEE8allocateB8ue170006Em, symObjAddr: 0x6200, symBinAddr: 0x100007240, symSize: 0x50 }
  - { offsetInCU: 0x21B48, offset: 0x21B48, size: 0x8, addend: 0x0, symName: __ZNSt3__117__compressed_pairIPNS_6vectorIfNS_9allocatorIfEEEERNS2_IS4_EEE6secondB8ue170006Ev, symObjAddr: 0x6250, symBinAddr: 0x100007290, symSize: 0x20 }
  - { offsetInCU: 0x21B6E, offset: 0x21B6E, size: 0x8, addend: 0x0, symName: __ZNSt3__122__compressed_pair_elemIRNS_9allocatorINS_6vectorIfNS1_IfEEEEEELi1ELb0EE5__getB8ue170006Ev, symObjAddr: 0x6270, symBinAddr: 0x1000072B0, symSize: 0x20 }
  - { offsetInCU: 0x21B94, offset: 0x21B94, size: 0x8, addend: 0x0, symName: __ZNSt3__117__compressed_pairIPNS_6vectorIfNS_9allocatorIfEEEERNS2_IS4_EEE5firstB8ue170006Ev, symObjAddr: 0x6290, symBinAddr: 0x1000072D0, symSize: 0x20 }
  - { offsetInCU: 0x21BBA, offset: 0x21BBA, size: 0x8, addend: 0x0, symName: __ZNSt3__116reverse_iteratorIPNS_6vectorIfNS_9allocatorIfEEEEEC1B8ue170006ES5_, symObjAddr: 0x6430, symBinAddr: 0x100007470, symSize: 0x30 }
  - { offsetInCU: 0x21BF2, offset: 0x21BF2, size: 0x8, addend: 0x0, symName: __ZNKSt3__116reverse_iteratorIPNS_6vectorIfNS_9allocatorIfEEEEE4baseB8ue170006Ev, symObjAddr: 0x6460, symBinAddr: 0x1000074A0, symSize: 0x20 }
  - { offsetInCU: 0x21C18, offset: 0x21C18, size: 0x8, addend: 0x0, symName: __ZNKSt3__16vectorINS0_IfNS_9allocatorIfEEEENS1_IS3_EEE14__annotate_newB8ue170006Em, symObjAddr: 0x64C0, symBinAddr: 0x100007500, symSize: 0xA0 }
  - { offsetInCU: 0x21C4D, offset: 0x21C4D, size: 0x8, addend: 0x0, symName: __ZNSt3__129_AllocatorDestroyRangeReverseINS_9allocatorINS_6vectorIfNS1_IfEEEEEENS_16reverse_iteratorIPS4_EEEC1B8ue170006ERS5_RS8_SB_, symObjAddr: 0x65C0, symBinAddr: 0x100007600, symSize: 0x40 }
  - { offsetInCU: 0x21CA4, offset: 0x21CA4, size: 0x8, addend: 0x0, symName: __ZNKSt3__116reverse_iteratorIPNS_6vectorIfNS_9allocatorIfEEEEEdeB8ue170006Ev, symObjAddr: 0x6660, symBinAddr: 0x1000076A0, symSize: 0x30 }
  - { offsetInCU: 0x21CD8, offset: 0x21CD8, size: 0x8, addend: 0x0, symName: __ZNSt3__116reverse_iteratorIPNS_6vectorIfNS_9allocatorIfEEEEEppB8ue170006Ev, symObjAddr: 0x6690, symBinAddr: 0x1000076D0, symSize: 0x20 }
  - { offsetInCU: 0x21CFE, offset: 0x21CFE, size: 0x8, addend: 0x0, symName: __ZNSt3__128__exception_guard_exceptionsINS_29_AllocatorDestroyRangeReverseINS_9allocatorINS_6vectorIfNS2_IfEEEEEENS_16reverse_iteratorIPS5_EEEEE10__completeB8ue170006Ev, symObjAddr: 0x66B0, symBinAddr: 0x1000076F0, symSize: 0x20 }
  - { offsetInCU: 0x21D24, offset: 0x21D24, size: 0x8, addend: 0x0, symName: __ZNSt3__128__exception_guard_exceptionsINS_29_AllocatorDestroyRangeReverseINS_9allocatorINS_6vectorIfNS2_IfEEEEEENS_16reverse_iteratorIPS5_EEEEED1B8ue170006Ev, symObjAddr: 0x66D0, symBinAddr: 0x100007710, symSize: 0x20 }
  - { offsetInCU: 0x21D4E, offset: 0x21D4E, size: 0x8, addend: 0x0, symName: __ZNSt3__128__exception_guard_exceptionsINS_29_AllocatorDestroyRangeReverseINS_9allocatorINS_6vectorIfNS2_IfEEEEEENS_16reverse_iteratorIPS5_EEEEEC1B8ue170006ESA_, symObjAddr: 0x66F0, symBinAddr: 0x100007730, symSize: 0x40 }
  - { offsetInCU: 0x21D86, offset: 0x21D86, size: 0x8, addend: 0x0, symName: __ZNSt3__128__exception_guard_exceptionsINS_29_AllocatorDestroyRangeReverseINS_9allocatorINS_6vectorIfNS2_IfEEEEEENS_16reverse_iteratorIPS5_EEEEEC2B8ue170006ESA_, symObjAddr: 0x6730, symBinAddr: 0x100007770, symSize: 0x30 }
  - { offsetInCU: 0x21DBE, offset: 0x21DBE, size: 0x8, addend: 0x0, symName: __ZNSt3__129_AllocatorDestroyRangeReverseINS_9allocatorINS_6vectorIfNS1_IfEEEEEENS_16reverse_iteratorIPS4_EEEC2B8ue170006ERS5_RS8_SB_, symObjAddr: 0x6760, symBinAddr: 0x1000077A0, symSize: 0x40 }
  - { offsetInCU: 0x21E1B, offset: 0x21E1B, size: 0x8, addend: 0x0, symName: __ZNSt3__119__to_address_helperINS_16reverse_iteratorIPNS_6vectorIfNS_9allocatorIfEEEEEEvE6__callB8ue170006ERKS7_, symObjAddr: 0x67A0, symBinAddr: 0x1000077E0, symSize: 0x40 }
  - { offsetInCU: 0x21E3E, offset: 0x21E3E, size: 0x8, addend: 0x0, symName: __ZNKSt3__116reverse_iteratorIPNS_6vectorIfNS_9allocatorIfEEEEEptB8ue170006Ev, symObjAddr: 0x67E0, symBinAddr: 0x100007820, symSize: 0x30 }
  - { offsetInCU: 0x21E64, offset: 0x21E64, size: 0x8, addend: 0x0, symName: __ZNSt3__128__exception_guard_exceptionsINS_29_AllocatorDestroyRangeReverseINS_9allocatorINS_6vectorIfNS2_IfEEEEEENS_16reverse_iteratorIPS5_EEEEED2B8ue170006Ev, symObjAddr: 0x68A0, symBinAddr: 0x1000078E0, symSize: 0x40 }
  - { offsetInCU: 0x21E8E, offset: 0x21E8E, size: 0x8, addend: 0x0, symName: __ZNKSt3__129_AllocatorDestroyRangeReverseINS_9allocatorINS_6vectorIfNS1_IfEEEEEENS_16reverse_iteratorIPS4_EEEclB8ue170006Ev, symObjAddr: 0x68E0, symBinAddr: 0x100007920, symSize: 0xF0 }
  - { offsetInCU: 0x21EB5, offset: 0x21EB5, size: 0x8, addend: 0x0, symName: __ZNSt3__116reverse_iteratorINS0_IPNS_6vectorIfNS_9allocatorIfEEEEEEEC1B8ue170006ES6_, symObjAddr: 0x6A40, symBinAddr: 0x100007A80, symSize: 0x30 }
  - { offsetInCU: 0x21EED, offset: 0x21EED, size: 0x8, addend: 0x0, symName: __ZNSt3__116reverse_iteratorINS0_IPNS_6vectorIfNS_9allocatorIfEEEEEEEppB8ue170006Ev, symObjAddr: 0x6AE0, symBinAddr: 0x100007B20, symSize: 0x30 }
  - { offsetInCU: 0x21F13, offset: 0x21F13, size: 0x8, addend: 0x0, symName: __ZNKSt3__116reverse_iteratorINS0_IPNS_6vectorIfNS_9allocatorIfEEEEEEE4baseB8ue170006Ev, symObjAddr: 0x6B10, symBinAddr: 0x100007B50, symSize: 0x20 }
  - { offsetInCU: 0x21F3F, offset: 0x21F3F, size: 0x8, addend: 0x0, symName: __ZNSt3__119__to_address_helperINS_16reverse_iteratorINS1_IPNS_6vectorIfNS_9allocatorIfEEEEEEEEvE6__callB8ue170006ERKS8_, symObjAddr: 0x6B30, symBinAddr: 0x100007B70, symSize: 0x40 }
  - { offsetInCU: 0x21F62, offset: 0x21F62, size: 0x8, addend: 0x0, symName: __ZNKSt3__116reverse_iteratorINS0_IPNS_6vectorIfNS_9allocatorIfEEEEEEEptB8ue170006Ev, symObjAddr: 0x6B70, symBinAddr: 0x100007BB0, symSize: 0x50 }
  - { offsetInCU: 0x21F88, offset: 0x21F88, size: 0x8, addend: 0x0, symName: __ZNSt3__116reverse_iteratorIPNS_6vectorIfNS_9allocatorIfEEEEEpLB8ue170006El, symObjAddr: 0x6C60, symBinAddr: 0x100007CA0, symSize: 0x30 }
  - { offsetInCU: 0x21FBC, offset: 0x21FBC, size: 0x8, addend: 0x0, symName: __ZNSt3__116reverse_iteratorIPNS_6vectorIfNS_9allocatorIfEEEEEmmB8ue170006Ev, symObjAddr: 0x6C90, symBinAddr: 0x100007CD0, symSize: 0x20 }
  - { offsetInCU: 0x21FE2, offset: 0x21FE2, size: 0x8, addend: 0x0, symName: __ZNSt3__116reverse_iteratorINS0_IPNS_6vectorIfNS_9allocatorIfEEEEEEEC2B8ue170006ES6_, symObjAddr: 0x6CB0, symBinAddr: 0x100007CF0, symSize: 0x40 }
  - { offsetInCU: 0x2201A, offset: 0x2201A, size: 0x8, addend: 0x0, symName: __ZNSt3__116reverse_iteratorIPNS_6vectorIfNS_9allocatorIfEEEEEC2B8ue170006ES5_, symObjAddr: 0x6CF0, symBinAddr: 0x100007D30, symSize: 0x30 }
  - { offsetInCU: 0x22052, offset: 0x22052, size: 0x8, addend: 0x0, symName: __ZNSt3__114__split_bufferINS_6vectorIfNS_9allocatorIfEEEERNS2_IS4_EEED2Ev, symObjAddr: 0x6D20, symBinAddr: 0x100007D60, symSize: 0x70 }
  - { offsetInCU: 0x2207E, offset: 0x2207E, size: 0x8, addend: 0x0, symName: __ZNSt3__114__split_bufferINS_6vectorIfNS_9allocatorIfEEEERNS2_IS4_EEE5clearB8ue170006Ev, symObjAddr: 0x6D90, symBinAddr: 0x100007DD0, symSize: 0x20 }
  - { offsetInCU: 0x220A4, offset: 0x220A4, size: 0x8, addend: 0x0, symName: __ZNKSt3__114__split_bufferINS_6vectorIfNS_9allocatorIfEEEERNS2_IS4_EEE8capacityB8ue170006Ev, symObjAddr: 0x6DB0, symBinAddr: 0x100007DF0, symSize: 0x40 }
  - { offsetInCU: 0x220CA, offset: 0x220CA, size: 0x8, addend: 0x0, symName: __ZNSt3__114__split_bufferINS_6vectorIfNS_9allocatorIfEEEERNS2_IS4_EEE17__destruct_at_endB8ue170006EPS4_, symObjAddr: 0x6DF0, symBinAddr: 0x100007E30, symSize: 0x30 }
  - { offsetInCU: 0x220FE, offset: 0x220FE, size: 0x8, addend: 0x0, symName: __ZNSt3__114__split_bufferINS_6vectorIfNS_9allocatorIfEEEERNS2_IS4_EEE17__destruct_at_endB8ue170006EPS4_NS_17integral_constantIbLb0EEE, symObjAddr: 0x6E20, symBinAddr: 0x100007E60, symSize: 0x80 }
  - { offsetInCU: 0x2213E, offset: 0x2213E, size: 0x8, addend: 0x0, symName: __ZNKSt3__114__split_bufferINS_6vectorIfNS_9allocatorIfEEEERNS2_IS4_EEE9__end_capB8ue170006Ev, symObjAddr: 0x6EA0, symBinAddr: 0x100007EE0, symSize: 0x20 }
  - { offsetInCU: 0x22164, offset: 0x22164, size: 0x8, addend: 0x0, symName: __ZNKSt3__117__compressed_pairIPNS_6vectorIfNS_9allocatorIfEEEERNS2_IS4_EEE5firstB8ue170006Ev, symObjAddr: 0x6EC0, symBinAddr: 0x100007F00, symSize: 0x20 }
  - { offsetInCU: 0x22190, offset: 0x22190, size: 0x8, addend: 0x0, symName: __ZNSt3__16vectorIfNS_9allocatorIfEEE22__construct_one_at_endB8ue170006IJfEEEvDpOT_, symObjAddr: 0x6EE0, symBinAddr: 0x100007F20, symSize: 0x90 }
  - { offsetInCU: 0x221DF, offset: 0x221DF, size: 0x8, addend: 0x0, symName: __ZNSt3__16vectorIfNS_9allocatorIfEEE21__push_back_slow_pathIfEEvOT_, symObjAddr: 0x6F70, symBinAddr: 0x100007FB0, symSize: 0xD0 }
  - { offsetInCU: 0x2223D, offset: 0x2223D, size: 0x8, addend: 0x0, symName: __ZNSt3__116allocator_traitsINS_9allocatorIfEEE9constructB8ue170006IfJfEvvEEvRS2_PT_DpOT0_, symObjAddr: 0x7040, symBinAddr: 0x100008080, symSize: 0x30 }
  - { offsetInCU: 0x22291, offset: 0x22291, size: 0x8, addend: 0x0, symName: __ZNKSt3__16vectorIfNS_9allocatorIfEEE11__recommendB8ue170006Em, symObjAddr: 0x70A0, symBinAddr: 0x1000080E0, symSize: 0xA0 }
  - { offsetInCU: 0x222E6, offset: 0x222E6, size: 0x8, addend: 0x0, symName: __ZNSt3__114__split_bufferIfRNS_9allocatorIfEEEC1EmmS3_, symObjAddr: 0x7140, symBinAddr: 0x100008180, symSize: 0x40 }
  - { offsetInCU: 0x2233C, offset: 0x2233C, size: 0x8, addend: 0x0, symName: __ZNSt3__114__split_bufferIfRNS_9allocatorIfEEED1Ev, symObjAddr: 0x72A0, symBinAddr: 0x1000082E0, symSize: 0x20 }
  - { offsetInCU: 0x22368, offset: 0x22368, size: 0x8, addend: 0x0, symName: __ZNSt3__114__split_bufferIfRNS_9allocatorIfEEEC2EmmS3_, symObjAddr: 0x72C0, symBinAddr: 0x100008300, symSize: 0xD0 }
  - { offsetInCU: 0x223DB, offset: 0x223DB, size: 0x8, addend: 0x0, symName: __ZNSt3__117__compressed_pairIPfRNS_9allocatorIfEEEC1B8ue170006IDnS4_EEOT_OT0_, symObjAddr: 0x7390, symBinAddr: 0x1000083D0, symSize: 0x30 }
  - { offsetInCU: 0x22433, offset: 0x22433, size: 0x8, addend: 0x0, symName: __ZNSt3__114__split_bufferIfRNS_9allocatorIfEEE7__allocB8ue170006Ev, symObjAddr: 0x73C0, symBinAddr: 0x100008400, symSize: 0x20 }
  - { offsetInCU: 0x22459, offset: 0x22459, size: 0x8, addend: 0x0, symName: __ZNSt3__114__split_bufferIfRNS_9allocatorIfEEE9__end_capB8ue170006Ev, symObjAddr: 0x73E0, symBinAddr: 0x100008420, symSize: 0x20 }
  - { offsetInCU: 0x2247F, offset: 0x2247F, size: 0x8, addend: 0x0, symName: __ZNSt3__117__compressed_pairIPfRNS_9allocatorIfEEEC2B8ue170006IDnS4_EEOT_OT0_, symObjAddr: 0x7400, symBinAddr: 0x100008440, symSize: 0x40 }
  - { offsetInCU: 0x224D7, offset: 0x224D7, size: 0x8, addend: 0x0, symName: __ZNSt3__122__compressed_pair_elemIRNS_9allocatorIfEELi1ELb0EEC2B8ue170006IS3_vEEOT_, symObjAddr: 0x7440, symBinAddr: 0x100008480, symSize: 0x20 }
  - { offsetInCU: 0x22519, offset: 0x22519, size: 0x8, addend: 0x0, symName: __ZNSt3__117__compressed_pairIPfRNS_9allocatorIfEEE6secondB8ue170006Ev, symObjAddr: 0x7460, symBinAddr: 0x1000084A0, symSize: 0x20 }
  - { offsetInCU: 0x2253F, offset: 0x2253F, size: 0x8, addend: 0x0, symName: __ZNSt3__122__compressed_pair_elemIRNS_9allocatorIfEELi1ELb0EE5__getB8ue170006Ev, symObjAddr: 0x7480, symBinAddr: 0x1000084C0, symSize: 0x20 }
  - { offsetInCU: 0x22565, offset: 0x22565, size: 0x8, addend: 0x0, symName: __ZNSt3__117__compressed_pairIPfRNS_9allocatorIfEEE5firstB8ue170006Ev, symObjAddr: 0x74A0, symBinAddr: 0x1000084E0, symSize: 0x20 }
  - { offsetInCU: 0x2258B, offset: 0x2258B, size: 0x8, addend: 0x0, symName: __ZNSt3__116reverse_iteratorIPfEC1B8ue170006ES1_, symObjAddr: 0x7530, symBinAddr: 0x100008570, symSize: 0x30 }
  - { offsetInCU: 0x225C3, offset: 0x225C3, size: 0x8, addend: 0x0, symName: __ZNKSt3__116reverse_iteratorIPfE4baseB8ue170006Ev, symObjAddr: 0x7560, symBinAddr: 0x1000085A0, symSize: 0x20 }
  - { offsetInCU: 0x2260A, offset: 0x2260A, size: 0x8, addend: 0x0, symName: __ZNKSt3__111__move_loopINS_17_ClassicAlgPolicyEEclB8ue170006INS_16reverse_iteratorIPfEES6_S6_EENS_4pairIT_T1_EES8_T0_S9_, symObjAddr: 0x79D0, symBinAddr: 0x100008A10, symSize: 0xA0 }
  - { offsetInCU: 0x22675, offset: 0x22675, size: 0x8, addend: 0x0, symName: __ZNSt3__119__unwrap_range_implINS_16reverse_iteratorIPfEES3_E8__unwrapB8ue170006ES3_S3_, symObjAddr: 0x7BB0, symBinAddr: 0x100008BF0, symSize: 0x90 }
  - { offsetInCU: 0x226AC, offset: 0x226AC, size: 0x8, addend: 0x0, symName: __ZNSt3__14pairINS_16reverse_iteratorIPfEES3_EC1B8ue170006IS3_S3_LPv0EEEOT_OT0_, symObjAddr: 0x7C40, symBinAddr: 0x100008C80, symSize: 0x30 }
  - { offsetInCU: 0x2270A, offset: 0x2270A, size: 0x8, addend: 0x0, symName: __ZNSt3__14pairINS_16reverse_iteratorIPfEES3_EC2B8ue170006IS3_S3_LPv0EEEOT_OT0_, symObjAddr: 0x7C70, symBinAddr: 0x100008CB0, symSize: 0x40 }
  - { offsetInCU: 0x22768, offset: 0x22768, size: 0x8, addend: 0x0, symName: __ZNSt3__18_IterOpsINS_17_ClassicAlgPolicyEE11__iter_moveB8ue170006IRNS_16reverse_iteratorIPfEEEENS_9enable_ifIXsr12is_referenceIDTdeclsr3stdE7declvalIRT_EEEEE5valueEDTclsr3stdE4movedeclsr3stdE7declvalISA_EEEEE4typeEOS9_, symObjAddr: 0x7CF0, symBinAddr: 0x100008D30, symSize: 0x20 }
  - { offsetInCU: 0x22794, offset: 0x22794, size: 0x8, addend: 0x0, symName: __ZNKSt3__116reverse_iteratorIPfEdeB8ue170006Ev, symObjAddr: 0x7D10, symBinAddr: 0x100008D50, symSize: 0x30 }
  - { offsetInCU: 0x227C8, offset: 0x227C8, size: 0x8, addend: 0x0, symName: __ZNSt3__116reverse_iteratorIPfEppB8ue170006Ev, symObjAddr: 0x7D40, symBinAddr: 0x100008D80, symSize: 0x20 }
  - { offsetInCU: 0x227EE, offset: 0x227EE, size: 0x8, addend: 0x0, symName: __ZNSt3__18_IterOpsINS_17_ClassicAlgPolicyEE25__validate_iter_referenceB8ue170006IRNS_16reverse_iteratorIPfEEEEvv, symObjAddr: 0x7D60, symBinAddr: 0x100008DA0, symSize: 0x10 }
  - { offsetInCU: 0x2280C, offset: 0x2280C, size: 0x8, addend: 0x0, symName: __ZNSt3__118__unwrap_iter_implINS_16reverse_iteratorIPfEELb0EE8__unwrapB8ue170006ES3_, symObjAddr: 0x7D70, symBinAddr: 0x100008DB0, symSize: 0x20 }
  - { offsetInCU: 0x2282F, offset: 0x2282F, size: 0x8, addend: 0x0, symName: __ZNSt3__119__unwrap_range_implINS_16reverse_iteratorIPfEES3_E8__rewrapB8ue170006ES3_S3_, symObjAddr: 0x7D90, symBinAddr: 0x100008DD0, symSize: 0x60 }
  - { offsetInCU: 0x22860, offset: 0x22860, size: 0x8, addend: 0x0, symName: __ZNSt3__118__unwrap_iter_implINS_16reverse_iteratorIPfEELb0EE8__rewrapB8ue170006ES3_S3_, symObjAddr: 0x7DF0, symBinAddr: 0x100008E30, symSize: 0x30 }
  - { offsetInCU: 0x2288D, offset: 0x2288D, size: 0x8, addend: 0x0, symName: __ZNSt3__116reverse_iteratorIPfEC2B8ue170006ES1_, symObjAddr: 0x7E20, symBinAddr: 0x100008E60, symSize: 0x30 }
  - { offsetInCU: 0x228C5, offset: 0x228C5, size: 0x8, addend: 0x0, symName: __ZNSt3__114__split_bufferIfRNS_9allocatorIfEEED2Ev, symObjAddr: 0x7E50, symBinAddr: 0x100008E90, symSize: 0x70 }
  - { offsetInCU: 0x228F1, offset: 0x228F1, size: 0x8, addend: 0x0, symName: __ZNSt3__114__split_bufferIfRNS_9allocatorIfEEE5clearB8ue170006Ev, symObjAddr: 0x7EC0, symBinAddr: 0x100008F00, symSize: 0x20 }
  - { offsetInCU: 0x22917, offset: 0x22917, size: 0x8, addend: 0x0, symName: __ZNKSt3__114__split_bufferIfRNS_9allocatorIfEEE8capacityB8ue170006Ev, symObjAddr: 0x7EE0, symBinAddr: 0x100008F20, symSize: 0x30 }
  - { offsetInCU: 0x2293D, offset: 0x2293D, size: 0x8, addend: 0x0, symName: __ZNSt3__114__split_bufferIfRNS_9allocatorIfEEE17__destruct_at_endB8ue170006EPf, symObjAddr: 0x7F10, symBinAddr: 0x100008F50, symSize: 0x30 }
  - { offsetInCU: 0x22971, offset: 0x22971, size: 0x8, addend: 0x0, symName: __ZNSt3__114__split_bufferIfRNS_9allocatorIfEEE17__destruct_at_endB8ue170006EPfNS_17integral_constantIbLb0EEE, symObjAddr: 0x7F40, symBinAddr: 0x100008F80, symSize: 0x80 }
  - { offsetInCU: 0x229B1, offset: 0x229B1, size: 0x8, addend: 0x0, symName: __ZNKSt3__114__split_bufferIfRNS_9allocatorIfEEE9__end_capB8ue170006Ev, symObjAddr: 0x7FC0, symBinAddr: 0x100009000, symSize: 0x20 }
  - { offsetInCU: 0x229D7, offset: 0x229D7, size: 0x8, addend: 0x0, symName: __ZNKSt3__117__compressed_pairIPfRNS_9allocatorIfEEE5firstB8ue170006Ev, symObjAddr: 0x7FE0, symBinAddr: 0x100009020, symSize: 0x20 }
  - { offsetInCU: 0x229FD, offset: 0x229FD, size: 0x8, addend: 0x0, symName: __ZNSt3__118basic_stringstreamIcNS_11char_traitsIcEENS_9allocatorIcEEED2Ev, symObjAddr: 0x8000, symBinAddr: 0x100009040, symSize: 0x60 }
  - { offsetInCU: 0x22A37, offset: 0x22A37, size: 0x8, addend: 0x0, symName: __ZThn16_NSt3__118basic_stringstreamIcNS_11char_traitsIcEENS_9allocatorIcEEED1Ev, symObjAddr: 0x8060, symBinAddr: 0x1000090A0, symSize: 0x20 }
  - { offsetInCU: 0x22A4E, offset: 0x22A4E, size: 0x8, addend: 0x0, symName: __ZTv0_n24_NSt3__118basic_stringstreamIcNS_11char_traitsIcEENS_9allocatorIcEEED1Ev, symObjAddr: 0x8080, symBinAddr: 0x1000090C0, symSize: 0x20 }
  - { offsetInCU: 0x22A6A, offset: 0x22A6A, size: 0x8, addend: 0x0, symName: __ZNSt3__115basic_stringbufIcNS_11char_traitsIcEENS_9allocatorIcEEED1Ev, symObjAddr: 0x80A0, symBinAddr: 0x1000090E0, symSize: 0x20 }
  - { offsetInCU: 0x22A97, offset: 0x22A97, size: 0x8, addend: 0x0, symName: __ZNSt3__115basic_stringbufIcNS_11char_traitsIcEENS_9allocatorIcEEED2Ev, symObjAddr: 0x80C0, symBinAddr: 0x100009100, symSize: 0x40 }
  - { offsetInCU: 0x22AC4, offset: 0x22AC4, size: 0x8, addend: 0x0, symName: __ZNSt3__114basic_ifstreamIcNS_11char_traitsIcEEED2Ev, symObjAddr: 0x8100, symBinAddr: 0x100009140, symSize: 0x60 }
  - { offsetInCU: 0x22AFE, offset: 0x22AFE, size: 0x8, addend: 0x0, symName: __ZTv0_n24_NSt3__114basic_ifstreamIcNS_11char_traitsIcEEED1Ev, symObjAddr: 0x8160, symBinAddr: 0x1000091A0, symSize: 0x20 }
  - { offsetInCU: 0x22B36, offset: 0x22B36, size: 0x8, addend: 0x0, symName: __ZNKSt3__113basic_ostreamIcNS_11char_traitsIcEEE6sentrycvbB8ue170006Ev, symObjAddr: 0x8370, symBinAddr: 0x1000093B0, symSize: 0x20 }
  - { offsetInCU: 0x22B5C, offset: 0x22B5C, size: 0x8, addend: 0x0, symName: __ZNSt3__119ostreambuf_iteratorIcNS_11char_traitsIcEEEC1B8ue170006ERNS_13basic_ostreamIcS2_EE, symObjAddr: 0x85B0, symBinAddr: 0x1000095F0, symSize: 0x30 }
  - { offsetInCU: 0x22B94, offset: 0x22B94, size: 0x8, addend: 0x0, symName: __ZNKSt3__18ios_base5flagsB8ue170006Ev, symObjAddr: 0x85E0, symBinAddr: 0x100009620, symSize: 0x20 }
  - { offsetInCU: 0x22BBC, offset: 0x22BBC, size: 0x8, addend: 0x0, symName: __ZNKSt3__19basic_iosIcNS_11char_traitsIcEEE4fillB8ue170006Ev, symObjAddr: 0x8600, symBinAddr: 0x100009640, symSize: 0x70 }
  - { offsetInCU: 0x22BE4, offset: 0x22BE4, size: 0x8, addend: 0x0, symName: __ZNKSt3__119ostreambuf_iteratorIcNS_11char_traitsIcEEE6failedB8ue170006Ev, symObjAddr: 0x8670, symBinAddr: 0x1000096B0, symSize: 0x20 }
  - { offsetInCU: 0x22C0A, offset: 0x22C0A, size: 0x8, addend: 0x0, symName: __ZNSt3__19basic_iosIcNS_11char_traitsIcEEE8setstateB8ue170006Ej, symObjAddr: 0x8690, symBinAddr: 0x1000096D0, symSize: 0x30 }
  - { offsetInCU: 0x22C3F, offset: 0x22C3F, size: 0x8, addend: 0x0, symName: __ZNKSt3__18ios_base5widthB8ue170006Ev, symObjAddr: 0x86C0, symBinAddr: 0x100009700, symSize: 0x20 }
  - { offsetInCU: 0x22C67, offset: 0x22C67, size: 0x8, addend: 0x0, symName: __ZNSt3__115basic_streambufIcNS_11char_traitsIcEEE5sputnB8ue170006EPKcl, symObjAddr: 0x86E0, symBinAddr: 0x100009720, symSize: 0x30 }
  - { offsetInCU: 0x22CA9, offset: 0x22CA9, size: 0x8, addend: 0x0, symName: __ZNSt3__112basic_stringIcNS_11char_traitsIcEENS_9allocatorIcEEEC1B8ue170006Emc, symObjAddr: 0x8710, symBinAddr: 0x100009750, symSize: 0x30 }
  - { offsetInCU: 0x22CF1, offset: 0x22CF1, size: 0x8, addend: 0x0, symName: __ZNSt3__112basic_stringIcNS_11char_traitsIcEENS_9allocatorIcEEE4dataB8ue170006Ev, symObjAddr: 0x8740, symBinAddr: 0x100009780, symSize: 0x30 }
  - { offsetInCU: 0x22D17, offset: 0x22D17, size: 0x8, addend: 0x0, symName: __ZNSt3__18ios_base5widthB8ue170006El, symObjAddr: 0x8770, symBinAddr: 0x1000097B0, symSize: 0x30 }
  - { offsetInCU: 0x22D5D, offset: 0x22D5D, size: 0x8, addend: 0x0, symName: __ZNSt3__112basic_stringIcNS_11char_traitsIcEENS_9allocatorIcEEEC2B8ue170006Emc, symObjAddr: 0x87A0, symBinAddr: 0x1000097E0, symSize: 0x50 }
  - { offsetInCU: 0x22DA5, offset: 0x22DA5, size: 0x8, addend: 0x0, symName: __ZNSt3__112basic_stringIcNS_11char_traitsIcEENS_9allocatorIcEEE13__get_pointerB8ue170006Ev, symObjAddr: 0x8800, symBinAddr: 0x100009840, symSize: 0x50 }
  - { offsetInCU: 0x22DCB, offset: 0x22DCB, size: 0x8, addend: 0x0, symName: __ZNKSt3__112basic_stringIcNS_11char_traitsIcEENS_9allocatorIcEEE9__is_longB8ue170006Ev, symObjAddr: 0x8850, symBinAddr: 0x100009890, symSize: 0x30 }
  - { offsetInCU: 0x22DF1, offset: 0x22DF1, size: 0x8, addend: 0x0, symName: __ZNSt3__112basic_stringIcNS_11char_traitsIcEENS_9allocatorIcEEE18__get_long_pointerB8ue170006Ev, symObjAddr: 0x8880, symBinAddr: 0x1000098C0, symSize: 0x20 }
  - { offsetInCU: 0x22E17, offset: 0x22E17, size: 0x8, addend: 0x0, symName: __ZNSt3__112basic_stringIcNS_11char_traitsIcEENS_9allocatorIcEEE19__get_short_pointerB8ue170006Ev, symObjAddr: 0x88A0, symBinAddr: 0x1000098E0, symSize: 0x30 }
  - { offsetInCU: 0x22E3D, offset: 0x22E3D, size: 0x8, addend: 0x0, symName: __ZNKSt3__117__compressed_pairINS_12basic_stringIcNS_11char_traitsIcEENS_9allocatorIcEEE5__repES5_E5firstB8ue170006Ev, symObjAddr: 0x88D0, symBinAddr: 0x100009910, symSize: 0x20 }
  - { offsetInCU: 0x22E63, offset: 0x22E63, size: 0x8, addend: 0x0, symName: __ZNKSt3__122__compressed_pair_elemINS_12basic_stringIcNS_11char_traitsIcEENS_9allocatorIcEEE5__repELi0ELb0EE5__getB8ue170006Ev, symObjAddr: 0x88F0, symBinAddr: 0x100009930, symSize: 0x10 }
  - { offsetInCU: 0x22E89, offset: 0x22E89, size: 0x8, addend: 0x0, symName: __ZNSt3__114pointer_traitsIPcE10pointer_toB8ue170006ERc, symObjAddr: 0x8900, symBinAddr: 0x100009940, symSize: 0x10 }
  - { offsetInCU: 0x22EAC, offset: 0x22EAC, size: 0x8, addend: 0x0, symName: __ZNSt3__119ostreambuf_iteratorIcNS_11char_traitsIcEEEC2B8ue170006ERNS_13basic_ostreamIcS2_EE, symObjAddr: 0x8910, symBinAddr: 0x100009950, symSize: 0x50 }
  - { offsetInCU: 0x22EE4, offset: 0x22EE4, size: 0x8, addend: 0x0, symName: __ZNKSt3__19basic_iosIcNS_11char_traitsIcEEE5rdbufB8ue170006Ev, symObjAddr: 0x8960, symBinAddr: 0x1000099A0, symSize: 0x20 }
  - { offsetInCU: 0x22F0C, offset: 0x22F0C, size: 0x8, addend: 0x0, symName: __ZNKSt3__18ios_base5rdbufB8ue170006Ev, symObjAddr: 0x8980, symBinAddr: 0x1000099C0, symSize: 0x20 }
  - { offsetInCU: 0x22F32, offset: 0x22F32, size: 0x8, addend: 0x0, symName: __ZNSt3__111char_traitsIcE11eq_int_typeB8ue170006Eii, symObjAddr: 0x89A0, symBinAddr: 0x1000099E0, symSize: 0x20 }
  - { offsetInCU: 0x22F65, offset: 0x22F65, size: 0x8, addend: 0x0, symName: __ZNSt3__111char_traitsIcE3eofB8ue170006Ev, symObjAddr: 0x89C0, symBinAddr: 0x100009A00, symSize: 0x10 }
  - { offsetInCU: 0x22F79, offset: 0x22F79, size: 0x8, addend: 0x0, symName: __ZNKSt3__19basic_iosIcNS_11char_traitsIcEEE5widenB8ue170006Ec, symObjAddr: 0x89D0, symBinAddr: 0x100009A10, symSize: 0x80 }
  - { offsetInCU: 0x22FE2, offset: 0x22FE2, size: 0x8, addend: 0x0, symName: __ZNKSt3__15ctypeIcE5widenB8ue170006Ec, symObjAddr: 0x8A80, symBinAddr: 0x100009AC0, symSize: 0x30 }
  - { offsetInCU: 0x23017, offset: 0x23017, size: 0x8, addend: 0x0, symName: __ZNSt3__18ios_base8setstateB8ue170006Ej, symObjAddr: 0x8AB0, symBinAddr: 0x100009AF0, symSize: 0x30 }
  - { offsetInCU: 0x2304E, offset: 0x2304E, size: 0x8, addend: 0x0, symName: __ZNSt3__123mersenne_twister_engineIjLm32ELm624ELm397ELm31ELj2567483615ELm11ELj4294967295ELm7ELj2636928640ELm15ELj4022730752ELm18ELj1812433253EEC2B8ue170006Ej, symObjAddr: 0x8AE0, symBinAddr: 0x100009B20, symSize: 0x30 }
  - { offsetInCU: 0x23086, offset: 0x23086, size: 0x8, addend: 0x0, symName: __ZNSt3__123mersenne_twister_engineIjLm32ELm624ELm397ELm31ELj2567483615ELm11ELj4294967295ELm7ELj2636928640ELm15ELj4022730752ELm18ELj1812433253EE4seedEj, symObjAddr: 0x8B10, symBinAddr: 0x100009B50, symSize: 0xB0 }
  - { offsetInCU: 0x230D9, offset: 0x230D9, size: 0x8, addend: 0x0, symName: __ZNSt3__123mersenne_twister_engineIjLm32ELm624ELm397ELm31ELj2567483615ELm11ELj4294967295ELm7ELj2636928640ELm15ELj4022730752ELm18ELj1812433253EE8__rshiftB8ue170006ILm30EEENS_9enable_ifIXltT_L_ZNS1_3_DtEEEjE4typeEj, symObjAddr: 0x8BC0, symBinAddr: 0x100009C00, symSize: 0x10 }
  - { offsetInCU: 0x23106, offset: 0x23106, size: 0x8, addend: 0x0, symName: __ZNSt3__18_IterOpsINS_17_ClassicAlgPolicyEE4nextB8ue170006INS_11__wrap_iterIPNS_6vectorIfNS_9allocatorIfEEEEEEEET_SB_SB_, symObjAddr: 0x8CF0, symBinAddr: 0x100009D30, symSize: 0x20 }
  - { offsetInCU: 0x2313C, offset: 0x2313C, size: 0x8, addend: 0x0, symName: __ZNSt3__124uniform_int_distributionIlEC1B8ue170006Ev, symObjAddr: 0x8D50, symBinAddr: 0x100009D90, symSize: 0x30 }
  - { offsetInCU: 0x23166, offset: 0x23166, size: 0x8, addend: 0x0, symName: __ZNSt3__111__wrap_iterIPNS_6vectorIfNS_9allocatorIfEEEEEmmB8ue170006Ev, symObjAddr: 0x8D80, symBinAddr: 0x100009DC0, symSize: 0x20 }
  - { offsetInCU: 0x2318C, offset: 0x2318C, size: 0x8, addend: 0x0, symName: __ZNSt3__124uniform_int_distributionIlE10param_typeC1B8ue170006Ell, symObjAddr: 0x8F50, symBinAddr: 0x100009F90, symSize: 0x30 }
  - { offsetInCU: 0x231D8, offset: 0x231D8, size: 0x8, addend: 0x0, symName: __ZNSt3__18_IterOpsINS_17_ClassicAlgPolicyEE9iter_swapB8ue170006IRNS_11__wrap_iterIPNS_6vectorIfNS_9allocatorIfEEEEEESA_EEvOT_OT0_, symObjAddr: 0x8F80, symBinAddr: 0x100009FC0, symSize: 0x40 }
  - { offsetInCU: 0x2321B, offset: 0x2321B, size: 0x8, addend: 0x0, symName: __ZNKSt3__111__wrap_iterIPNS_6vectorIfNS_9allocatorIfEEEEEplB8ue170006El, symObjAddr: 0x8FC0, symBinAddr: 0x10000A000, symSize: 0x40 }
  - { offsetInCU: 0x2325D, offset: 0x2325D, size: 0x8, addend: 0x0, symName: __ZNSt3__111__wrap_iterIPNS_6vectorIfNS_9allocatorIfEEEEEppB8ue170006Ev, symObjAddr: 0x9000, symBinAddr: 0x10000A040, symSize: 0x20 }
  - { offsetInCU: 0x23283, offset: 0x23283, size: 0x8, addend: 0x0, symName: __ZNKSt3__111__wrap_iterIPNS_6vectorIfNS_9allocatorIfEEEEE4baseB8ue170006Ev, symObjAddr: 0x9020, symBinAddr: 0x10000A060, symSize: 0x20 }
  - { offsetInCU: 0x232A9, offset: 0x232A9, size: 0x8, addend: 0x0, symName: __ZNSt3__124uniform_int_distributionIlEC1B8ue170006Ell, symObjAddr: 0x9040, symBinAddr: 0x10000A080, symSize: 0x30 }
  - { offsetInCU: 0x232EF, offset: 0x232EF, size: 0x8, addend: 0x0, symName: __ZNSt3__124uniform_int_distributionIlEC2B8ue170006Ell, symObjAddr: 0x9070, symBinAddr: 0x10000A0B0, symSize: 0x30 }
  - { offsetInCU: 0x23335, offset: 0x23335, size: 0x8, addend: 0x0, symName: __ZNKSt3__124uniform_int_distributionIlE10param_type1bB8ue170006Ev, symObjAddr: 0x90A0, symBinAddr: 0x10000A0E0, symSize: 0x20 }
  - { offsetInCU: 0x2335B, offset: 0x2335B, size: 0x8, addend: 0x0, symName: __ZNKSt3__124uniform_int_distributionIlE10param_type1aB8ue170006Ev, symObjAddr: 0x90C0, symBinAddr: 0x10000A100, symSize: 0x20 }
  - { offsetInCU: 0x23381, offset: 0x23381, size: 0x8, addend: 0x0, symName: __ZNSt3__125__independent_bits_engineINS_23mersenne_twister_engineIjLm32ELm624ELm397ELm31ELj2567483615ELm11ELj4294967295ELm7ELj2636928640ELm15ELj4022730752ELm18ELj1812433253EEEmEC1ERS2_m, symObjAddr: 0x90E0, symBinAddr: 0x10000A120, symSize: 0x30 }
  - { offsetInCU: 0x233C8, offset: 0x233C8, size: 0x8, addend: 0x0, symName: __ZNSt3__125__independent_bits_engineINS_23mersenne_twister_engineIjLm32ELm624ELm397ELm31ELj2567483615ELm11ELj4294967295ELm7ELj2636928640ELm15ELj4022730752ELm18ELj1812433253EEEmEclB8ue170006Ev, symObjAddr: 0x9110, symBinAddr: 0x10000A150, symSize: 0x20 }
  - { offsetInCU: 0x233EE, offset: 0x233EE, size: 0x8, addend: 0x0, symName: __ZNSt3__125__independent_bits_engineINS_23mersenne_twister_engineIjLm32ELm624ELm397ELm31ELj2567483615ELm11ELj4294967295ELm7ELj2636928640ELm15ELj4022730752ELm18ELj1812433253EEEmEC2ERS2_m, symObjAddr: 0x9170, symBinAddr: 0x10000A1B0, symSize: 0x230 }
  - { offsetInCU: 0x23435, offset: 0x23435, size: 0x8, addend: 0x0, symName: __ZNSt3__125__independent_bits_engineINS_23mersenne_twister_engineIjLm32ELm624ELm397ELm31ELj2567483615ELm11ELj4294967295ELm7ELj2636928640ELm15ELj4022730752ELm18ELj1812433253EEEmE6__evalENS_17integral_constantIbLb1EEE, symObjAddr: 0x93A0, symBinAddr: 0x10000A3E0, symSize: 0x180 }
  - { offsetInCU: 0x234F2, offset: 0x234F2, size: 0x8, addend: 0x0, symName: __ZNSt3__123mersenne_twister_engineIjLm32ELm624ELm397ELm31ELj2567483615ELm11ELj4294967295ELm7ELj2636928640ELm15ELj4022730752ELm18ELj1812433253EEclEv, symObjAddr: 0x9520, symBinAddr: 0x10000A560, symSize: 0x130 }
  - { offsetInCU: 0x23565, offset: 0x23565, size: 0x8, addend: 0x0, symName: __ZNSt3__123mersenne_twister_engineIjLm32ELm624ELm397ELm31ELj2567483615ELm11ELj4294967295ELm7ELj2636928640ELm15ELj4022730752ELm18ELj1812433253EE3minB8ue170006Ev, symObjAddr: 0x9650, symBinAddr: 0x10000A690, symSize: 0x10 }
  - { offsetInCU: 0x23579, offset: 0x23579, size: 0x8, addend: 0x0, symName: __ZNSt3__123mersenne_twister_engineIjLm32ELm624ELm397ELm31ELj2567483615ELm11ELj4294967295ELm7ELj2636928640ELm15ELj4022730752ELm18ELj1812433253EE8__rshiftB8ue170006ILm1EEENS_9enable_ifIXltT_L_ZNS1_3_DtEEEjE4typeEj, symObjAddr: 0x9660, symBinAddr: 0x10000A6A0, symSize: 0x10 }
  - { offsetInCU: 0x235A6, offset: 0x235A6, size: 0x8, addend: 0x0, symName: __ZNSt3__123mersenne_twister_engineIjLm32ELm624ELm397ELm31ELj2567483615ELm11ELj4294967295ELm7ELj2636928640ELm15ELj4022730752ELm18ELj1812433253EE8__rshiftB8ue170006ILm11EEENS_9enable_ifIXltT_L_ZNS1_3_DtEEEjE4typeEj, symObjAddr: 0x9670, symBinAddr: 0x10000A6B0, symSize: 0x10 }
  - { offsetInCU: 0x235D3, offset: 0x235D3, size: 0x8, addend: 0x0, symName: __ZNSt3__123mersenne_twister_engineIjLm32ELm624ELm397ELm31ELj2567483615ELm11ELj4294967295ELm7ELj2636928640ELm15ELj4022730752ELm18ELj1812433253EE8__lshiftB8ue170006ILm7EEENS_9enable_ifIXltT_Lm32EEjE4typeEj, symObjAddr: 0x9680, symBinAddr: 0x10000A6C0, symSize: 0x20 }
  - { offsetInCU: 0x23600, offset: 0x23600, size: 0x8, addend: 0x0, symName: __ZNSt3__123mersenne_twister_engineIjLm32ELm624ELm397ELm31ELj2567483615ELm11ELj4294967295ELm7ELj2636928640ELm15ELj4022730752ELm18ELj1812433253EE8__lshiftB8ue170006ILm15EEENS_9enable_ifIXltT_Lm32EEjE4typeEj, symObjAddr: 0x96A0, symBinAddr: 0x10000A6E0, symSize: 0x20 }
  - { offsetInCU: 0x2362D, offset: 0x2362D, size: 0x8, addend: 0x0, symName: __ZNSt3__123mersenne_twister_engineIjLm32ELm624ELm397ELm31ELj2567483615ELm11ELj4294967295ELm7ELj2636928640ELm15ELj4022730752ELm18ELj1812433253EE8__rshiftB8ue170006ILm18EEENS_9enable_ifIXltT_L_ZNS1_3_DtEEEjE4typeEj, symObjAddr: 0x96C0, symBinAddr: 0x10000A700, symSize: 0x10 }
  - { offsetInCU: 0x2365A, offset: 0x2365A, size: 0x8, addend: 0x0, symName: __ZNSt3__124uniform_int_distributionIlE10param_typeC2B8ue170006Ell, symObjAddr: 0x96F0, symBinAddr: 0x10000A730, symSize: 0x30 }
  - { offsetInCU: 0x236A0, offset: 0x236A0, size: 0x8, addend: 0x0, symName: __ZNKSt3__111__wrap_iterIPNS_6vectorIfNS_9allocatorIfEEEEEdeB8ue170006Ev, symObjAddr: 0x9790, symBinAddr: 0x10000A7D0, symSize: 0x20 }
  - { offsetInCU: 0x236C6, offset: 0x236C6, size: 0x8, addend: 0x0, symName: __ZNSt3__16vectorIfNS_9allocatorIfEEE4swapERS3_, symObjAddr: 0x97B0, symBinAddr: 0x10000A7F0, symSize: 0x80 }
  - { offsetInCU: 0x236FD, offset: 0x236FD, size: 0x8, addend: 0x0, symName: __ZNSt3__111__wrap_iterIPNS_6vectorIfNS_9allocatorIfEEEEEpLB8ue170006El, symObjAddr: 0x9840, symBinAddr: 0x10000A880, symSize: 0x20 }
  - { offsetInCU: 0x23731, offset: 0x23731, size: 0x8, addend: 0x0, symName: __ZNSt3__18_IterOpsINS_17_ClassicAlgPolicyEE4nextB8ue170006INS_11__wrap_iterIPiEEEET_S7_S7_, symObjAddr: 0x9980, symBinAddr: 0x10000A9C0, symSize: 0x20 }
  - { offsetInCU: 0x23767, offset: 0x23767, size: 0x8, addend: 0x0, symName: __ZNSt3__111__wrap_iterIPiEmmB8ue170006Ev, symObjAddr: 0x99E0, symBinAddr: 0x10000AA20, symSize: 0x20 }
  - { offsetInCU: 0x23793, offset: 0x23793, size: 0x8, addend: 0x0, symName: __ZNSt3__18_IterOpsINS_17_ClassicAlgPolicyEE9iter_swapB8ue170006IRNS_11__wrap_iterIPiEES6_EEvOT_OT0_, symObjAddr: 0x9A40, symBinAddr: 0x10000AA80, symSize: 0x40 }
  - { offsetInCU: 0x237D6, offset: 0x237D6, size: 0x8, addend: 0x0, symName: __ZNKSt3__111__wrap_iterIPiEplB8ue170006El, symObjAddr: 0x9A80, symBinAddr: 0x10000AAC0, symSize: 0x40 }
  - { offsetInCU: 0x23818, offset: 0x23818, size: 0x8, addend: 0x0, symName: __ZNSt3__111__wrap_iterIPiEppB8ue170006Ev, symObjAddr: 0x9AC0, symBinAddr: 0x10000AB00, symSize: 0x20 }
  - { offsetInCU: 0x2383E, offset: 0x2383E, size: 0x8, addend: 0x0, symName: __ZNKSt3__111__wrap_iterIPiE4baseB8ue170006Ev, symObjAddr: 0x9AE0, symBinAddr: 0x10000AB20, symSize: 0x20 }
  - { offsetInCU: 0x23864, offset: 0x23864, size: 0x8, addend: 0x0, symName: __ZNKSt3__111__wrap_iterIPiEdeB8ue170006Ev, symObjAddr: 0x9B70, symBinAddr: 0x10000ABB0, symSize: 0x20 }
  - { offsetInCU: 0x2388A, offset: 0x2388A, size: 0x8, addend: 0x0, symName: __ZNSt3__111__wrap_iterIPiEpLB8ue170006El, symObjAddr: 0x9B90, symBinAddr: 0x10000ABD0, symSize: 0x20 }
  - { offsetInCU: 0x238BE, offset: 0x238BE, size: 0x8, addend: 0x0, symName: __ZNSt3__19basic_iosIcNS_11char_traitsIcEEEC2B8ue170006Ev, symObjAddr: 0x9BB0, symBinAddr: 0x10000ABF0, symSize: 0x40 }
  - { offsetInCU: 0x238E8, offset: 0x238E8, size: 0x8, addend: 0x0, symName: __ZNSt3__113basic_istreamIcNS_11char_traitsIcEEEC2B8ue170006EPNS_15basic_streambufIcS2_EE, symObjAddr: 0x9BF0, symBinAddr: 0x10000AC30, symSize: 0x50 }
  - { offsetInCU: 0x2392D, offset: 0x2392D, size: 0x8, addend: 0x0, symName: __ZNSt3__18ios_baseC2B8ue170006Ev, symObjAddr: 0x9C40, symBinAddr: 0x10000AC80, symSize: 0x20 }
  - { offsetInCU: 0x23957, offset: 0x23957, size: 0x8, addend: 0x0, symName: __ZNSt3__19basic_iosIcNS_11char_traitsIcEEE4initB8ue170006EPNS_15basic_streambufIcS2_EE, symObjAddr: 0x9C60, symBinAddr: 0x10000ACA0, symSize: 0x50 }
  - { offsetInCU: 0x2398E, offset: 0x2398E, size: 0x8, addend: 0x0, symName: __ZNKSt3__19basic_iosIcNS_11char_traitsIcEEE4failB8ue170006Ev, symObjAddr: 0x9CB0, symBinAddr: 0x10000ACF0, symSize: 0x20 }
  - { offsetInCU: 0x239B4, offset: 0x239B4, size: 0x8, addend: 0x0, symName: __ZNKSt3__18ios_base4failB8ue170006Ev, symObjAddr: 0x9CD0, symBinAddr: 0x10000AD10, symSize: 0x20 }
  - { offsetInCU: 0x239DC, offset: 0x239DC, size: 0x8, addend: 0x0, symName: __ZNSt3__114basic_iostreamIcNS_11char_traitsIcEEEC2B8ue170006EPNS_15basic_streambufIcS2_EE, symObjAddr: 0x9CF0, symBinAddr: 0x10000AD30, symSize: 0xA0 }
  - { offsetInCU: 0x23A22, offset: 0x23A22, size: 0x8, addend: 0x0, symName: __ZNSt3__115basic_stringbufIcNS_11char_traitsIcEENS_9allocatorIcEEEC1B8ue170006ERKNS_12basic_stringIcS2_S4_EEj, symObjAddr: 0x9D90, symBinAddr: 0x10000ADD0, symSize: 0x30 }
  - { offsetInCU: 0x23A6A, offset: 0x23A6A, size: 0x8, addend: 0x0, symName: __ZNSt3__113basic_ostreamIcNS_11char_traitsIcEEEC2B8ue170006Ev, symObjAddr: 0x9DC0, symBinAddr: 0x10000AE00, symSize: 0x30 }
  - { offsetInCU: 0x23AA1, offset: 0x23AA1, size: 0x8, addend: 0x0, symName: __ZNSt3__115basic_stringbufIcNS_11char_traitsIcEENS_9allocatorIcEEEC2B8ue170006ERKNS_12basic_stringIcS2_S4_EEj, symObjAddr: 0x9DF0, symBinAddr: 0x10000AE30, symSize: 0xA0 }
  - { offsetInCU: 0x23AE9, offset: 0x23AE9, size: 0x8, addend: 0x0, symName: __ZNKSt3__112basic_stringIcNS_11char_traitsIcEENS_9allocatorIcEEE13get_allocatorB8ue170006Ev, symObjAddr: 0x9E90, symBinAddr: 0x10000AED0, symSize: 0x20 }
  - { offsetInCU: 0x23B0F, offset: 0x23B0F, size: 0x8, addend: 0x0, symName: __ZNSt3__112basic_stringIcNS_11char_traitsIcEENS_9allocatorIcEEEC1B8ue170006ERKS4_, symObjAddr: 0x9EB0, symBinAddr: 0x10000AEF0, symSize: 0x30 }
  - { offsetInCU: 0x23B48, offset: 0x23B48, size: 0x8, addend: 0x0, symName: __ZNKSt3__112basic_stringIcNS_11char_traitsIcEENS_9allocatorIcEEE7__allocB8ue170006Ev, symObjAddr: 0x9EE0, symBinAddr: 0x10000AF20, symSize: 0x20 }
  - { offsetInCU: 0x23B6E, offset: 0x23B6E, size: 0x8, addend: 0x0, symName: __ZNKSt3__117__compressed_pairINS_12basic_stringIcNS_11char_traitsIcEENS_9allocatorIcEEE5__repES5_E6secondB8ue170006Ev, symObjAddr: 0x9F00, symBinAddr: 0x10000AF40, symSize: 0x20 }
  - { offsetInCU: 0x23B94, offset: 0x23B94, size: 0x8, addend: 0x0, symName: __ZNKSt3__122__compressed_pair_elemINS_9allocatorIcEELi1ELb1EE5__getB8ue170006Ev, symObjAddr: 0x9F20, symBinAddr: 0x10000AF60, symSize: 0x10 }
  - { offsetInCU: 0x23BBA, offset: 0x23BBA, size: 0x8, addend: 0x0, symName: __ZNSt3__112basic_stringIcNS_11char_traitsIcEENS_9allocatorIcEEEC2B8ue170006ERKS4_, symObjAddr: 0x9F30, symBinAddr: 0x10000AF70, symSize: 0x50 }
  - { offsetInCU: 0x23BF3, offset: 0x23BF3, size: 0x8, addend: 0x0, symName: __ZNSt3__117__compressed_pairINS_12basic_stringIcNS_11char_traitsIcEENS_9allocatorIcEEE5__repES5_EC1B8ue170006INS_18__default_init_tagERKS5_EEOT_OT0_, symObjAddr: 0x9F80, symBinAddr: 0x10000AFC0, symSize: 0x30 }
  - { offsetInCU: 0x23C4B, offset: 0x23C4B, size: 0x8, addend: 0x0, symName: __ZNSt3__117__compressed_pairINS_12basic_stringIcNS_11char_traitsIcEENS_9allocatorIcEEE5__repES5_EC2B8ue170006INS_18__default_init_tagERKS5_EEOT_OT0_, symObjAddr: 0x9FB0, symBinAddr: 0x10000AFF0, symSize: 0x40 }
  - { offsetInCU: 0x23CA3, offset: 0x23CA3, size: 0x8, addend: 0x0, symName: __ZNSt3__122__compressed_pair_elemINS_9allocatorIcEELi1ELb1EEC2B8ue170006IRKS2_vEEOT_, symObjAddr: 0x9FF0, symBinAddr: 0x10000B030, symSize: 0x10 }
  - { offsetInCU: 0x23D06, offset: 0x23D06, size: 0x8, addend: 0x0, symName: __ZNKSt3__113basic_istreamIcNS_11char_traitsIcEEE6sentrycvbB8ue170006Ev, symObjAddr: 0xA000, symBinAddr: 0x10000B040, symSize: 0x20 }
  - { offsetInCU: 0x23D2C, offset: 0x23D2C, size: 0x8, addend: 0x0, symName: __ZNSt3__112basic_stringIcNS_11char_traitsIcEENS_9allocatorIcEEE5clearB8ue170006Ev, symObjAddr: 0xA020, symBinAddr: 0x10000B060, symSize: 0x80 }
  - { offsetInCU: 0x23D54, offset: 0x23D54, size: 0x8, addend: 0x0, symName: __ZNSt3__115basic_streambufIcNS_11char_traitsIcEEE6sbumpcB8ue170006Ev, symObjAddr: 0xA0A0, symBinAddr: 0x10000B0E0, symSize: 0x60 }
  - { offsetInCU: 0x23D7A, offset: 0x23D7A, size: 0x8, addend: 0x0, symName: __ZNSt3__111char_traitsIcE12to_char_typeB8ue170006Ei, symObjAddr: 0xA100, symBinAddr: 0x10000B140, symSize: 0x10 }
  - { offsetInCU: 0x23D9D, offset: 0x23D9D, size: 0x8, addend: 0x0, symName: __ZNSt3__111char_traitsIcE2eqEcc, symObjAddr: 0xA110, symBinAddr: 0x10000B150, symSize: 0x30 }
  - { offsetInCU: 0x23DCE, offset: 0x23DCE, size: 0x8, addend: 0x0, symName: __ZNKSt3__112basic_stringIcNS_11char_traitsIcEENS_9allocatorIcEEE4sizeB8ue170006Ev, symObjAddr: 0xA140, symBinAddr: 0x10000B180, symSize: 0x50 }
  - { offsetInCU: 0x23DF4, offset: 0x23DF4, size: 0x8, addend: 0x0, symName: __ZNKSt3__112basic_stringIcNS_11char_traitsIcEENS_9allocatorIcEEE8max_sizeB8ue170006Ev, symObjAddr: 0xA190, symBinAddr: 0x10000B1D0, symSize: 0xA0 }
  - { offsetInCU: 0x23E46, offset: 0x23E46, size: 0x8, addend: 0x0, symName: __ZNSt3__18ios_base18__setstate_nothrowB8ue170006Ej, symObjAddr: 0xA230, symBinAddr: 0x10000B270, symSize: 0x50 }
  - { offsetInCU: 0x23E7B, offset: 0x23E7B, size: 0x8, addend: 0x0, symName: __ZNKSt3__19basic_iosIcNS_11char_traitsIcEEE10exceptionsB8ue170006Ev, symObjAddr: 0xA280, symBinAddr: 0x10000B2C0, symSize: 0x20 }
  - { offsetInCU: 0x23EA1, offset: 0x23EA1, size: 0x8, addend: 0x0, symName: __ZNSt3__111char_traitsIcE6assignB8ue170006ERcRKc, symObjAddr: 0xA2A0, symBinAddr: 0x10000B2E0, symSize: 0x20 }
  - { offsetInCU: 0x23ED2, offset: 0x23ED2, size: 0x8, addend: 0x0, symName: __ZNSt3__112basic_stringIcNS_11char_traitsIcEENS_9allocatorIcEEE15__set_long_sizeB8ue170006Em, symObjAddr: 0xA2C0, symBinAddr: 0x10000B300, symSize: 0x30 }
  - { offsetInCU: 0x23F07, offset: 0x23F07, size: 0x8, addend: 0x0, symName: __ZNSt3__112basic_stringIcNS_11char_traitsIcEENS_9allocatorIcEEE16__set_short_sizeB8ue170006Em, symObjAddr: 0xA2F0, symBinAddr: 0x10000B330, symSize: 0x50 }
  - { offsetInCU: 0x23F3C, offset: 0x23F3C, size: 0x8, addend: 0x0, symName: __ZNSt3__111char_traitsIcE11to_int_typeB8ue170006Ec, symObjAddr: 0xA340, symBinAddr: 0x10000B380, symSize: 0x10 }
  - { offsetInCU: 0x23F60, offset: 0x23F60, size: 0x8, addend: 0x0, symName: __ZNKSt3__112basic_stringIcNS_11char_traitsIcEENS_9allocatorIcEEE15__get_long_sizeB8ue170006Ev, symObjAddr: 0xA350, symBinAddr: 0x10000B390, symSize: 0x20 }
  - { offsetInCU: 0x23F86, offset: 0x23F86, size: 0x8, addend: 0x0, symName: __ZNKSt3__112basic_stringIcNS_11char_traitsIcEENS_9allocatorIcEEE16__get_short_sizeB8ue170006Ev, symObjAddr: 0xA370, symBinAddr: 0x10000B3B0, symSize: 0x30 }
  - { offsetInCU: 0x23FB7, offset: 0x23FB7, size: 0x8, addend: 0x0, symName: __ZNSt3__116allocator_traitsINS_9allocatorIcEEE8max_sizeB8ue170006IS2_vvEEmRKS2_, symObjAddr: 0xA3A0, symBinAddr: 0x10000B3E0, symSize: 0x20 }
  - { offsetInCU: 0x23FE2, offset: 0x23FE2, size: 0x8, addend: 0x0, symName: __ZNKSt3__18ios_base10exceptionsB8ue170006Ev, symObjAddr: 0xA3C0, symBinAddr: 0x10000B400, symSize: 0x11 }
  - { offsetInCU: 0xF29C, offset: 0x334B1, size: 0x8, addend: 0x0, symName: __ZNSt3__17advanceB8ue170006IPNS_6vectorINS1_IfNS_9allocatorIfEEEENS2_IS4_EEEEllvEEvRT_T0_, symObjAddr: 0x51E0, symBinAddr: 0x10000FA50, symSize: 0x30 }
  - { offsetInCU: 0xF51C, offset: 0x33731, size: 0x8, addend: 0x0, symName: __ZNSt3__17advanceB8ue170006INS_16reverse_iteratorIPNS_6vectorINS2_IfNS_9allocatorIfEEEENS3_IS5_EEEEEEllvEEvRT_T0_, symObjAddr: 0x5FA0, symBinAddr: 0x10000FE00, symSize: 0x30 }
  - { offsetInCU: 0xF587, offset: 0x3379C, size: 0x8, addend: 0x0, symName: __ZNSt3__17advanceB8ue170006IPfllvEEvRT_T0_, symObjAddr: 0x9C80, symBinAddr: 0x100010C80, symSize: 0x30 }
  - { offsetInCU: 0x115C4, offset: 0x357D9, size: 0x8, addend: 0x0, symName: __ZNSt3__1rsB8ue170006IcNS_11char_traitsIcEENS_9allocatorIcEEEERNS_13basic_istreamIT_T0_EES9_RNS_12basic_stringIS6_S7_T1_EE, symObjAddr: 0xAF0, symBinAddr: 0x10000BED0, symSize: 0x2F0 }
  - { offsetInCU: 0x11693, offset: 0x358A8, size: 0x8, addend: 0x0, symName: __ZNSt3__1lsB8ue170006IcNS_11char_traitsIcEENS_9allocatorIcEEEERNS_13basic_ostreamIT_T0_EES9_RKNS_12basic_stringIS6_S7_T1_EE, symObjAddr: 0x1070, symBinAddr: 0x10000C380, symSize: 0x50 }
  - { offsetInCU: 0x11A51, offset: 0x35C66, size: 0x8, addend: 0x0, symName: __ZNSt3__1eqB8ue170006IcNS_11char_traitsIcEENS_9allocatorIcEEEEbRKNS_12basic_stringIT_T0_T1_EEPKS6_, symObjAddr: 0x2610, symBinAddr: 0x10000D840, symSize: 0x60 }
  - { offsetInCU: 0x11ACE, offset: 0x35CE3, size: 0x8, addend: 0x0, symName: __ZNSt3__112construct_atB8ue170006INS_6vectorINS1_IfNS_9allocatorIfEEEENS2_IS4_EEEEJEPS6_EEPT_S9_DpOT0_, symObjAddr: 0x3FB0, symBinAddr: 0x10000EDD0, symSize: 0x30 }
  - { offsetInCU: 0x11B2A, offset: 0x35D3F, size: 0x8, addend: 0x0, symName: __ZNSt3__119__allocate_at_leastB8ue170006INS_9allocatorINS_6vectorINS2_IfNS1_IfEEEENS1_IS4_EEEEEEEEDaRT_m, symObjAddr: 0x4500, symBinAddr: 0x10000F010, symSize: 0x40 }
  - { offsetInCU: 0x11B6D, offset: 0x35D82, size: 0x8, addend: 0x0, symName: __ZNSt3__117allocate_at_leastB8ue170006INS_9allocatorINS_6vectorINS2_IfNS1_IfEEEENS1_IS4_EEEEEEEENS_17allocation_resultINS_16allocator_traitsIT_E7pointerEEERSA_m, symObjAddr: 0x45E0, symBinAddr: 0x10000F0F0, symSize: 0x40 }
  - { offsetInCU: 0x11BB0, offset: 0x35DC5, size: 0x8, addend: 0x0, symName: __ZNSt3__142__uninitialized_allocator_move_if_noexceptB8ue170006INS_9allocatorINS_6vectorINS2_IfNS1_IfEEEENS1_IS4_EEEEEENS_16reverse_iteratorIPS6_EESA_SA_EET2_RT_T0_T1_SB_, symObjAddr: 0x4980, symBinAddr: 0x10000F2D0, symSize: 0x180 }
  - { offsetInCU: 0x11C4F, offset: 0x35E64, size: 0x8, addend: 0x0, symName: __ZNSt3__14swapB8ue170006IPNS_6vectorINS1_IfNS_9allocatorIfEEEENS2_IS4_EEEEEENS_9enable_ifIXaasr21is_move_constructibleIT_EE5valuesr18is_move_assignableIS9_EE5valueEvE4typeERS9_SC_, symObjAddr: 0x4B50, symBinAddr: 0x10000F4A0, symSize: 0x40 }
  - { offsetInCU: 0x11CA0, offset: 0x35EB5, size: 0x8, addend: 0x0, symName: __ZNSt3__122__make_exception_guardB8ue170006INS_29_AllocatorDestroyRangeReverseINS_9allocatorINS_6vectorINS3_IfNS2_IfEEEENS2_IS5_EEEEEENS_16reverse_iteratorIPS7_EEEEEENS_28__exception_guard_exceptionsIT_EESE_, symObjAddr: 0x4C70, symBinAddr: 0x10000F580, symSize: 0x60 }
  - { offsetInCU: 0x11CD5, offset: 0x35EEA, size: 0x8, addend: 0x0, symName: __ZNSt3__1neB8ue170006IPNS_6vectorINS1_IfNS_9allocatorIfEEEENS2_IS4_EEEES7_EEbRKNS_16reverse_iteratorIT_EERKNS8_IT0_EE, symObjAddr: 0x4D10, symBinAddr: 0x10000F620, symSize: 0x40 }
  - { offsetInCU: 0x11D21, offset: 0x35F36, size: 0x8, addend: 0x0, symName: __ZNSt3__112__to_addressB8ue170006INS_16reverse_iteratorIPNS_6vectorINS2_IfNS_9allocatorIfEEEENS3_IS5_EEEEEEvEEu7__decayIDTclsr19__to_address_helperIT_EE6__callclsr3stdE7declvalIRKSA_EEEEESC_, symObjAddr: 0x4D80, symBinAddr: 0x10000F690, symSize: 0x20 }
  - { offsetInCU: 0x11D57, offset: 0x35F6C, size: 0x8, addend: 0x0, symName: __ZNSt3__112construct_atB8ue170006INS_6vectorINS1_IfNS_9allocatorIfEEEENS2_IS4_EEEEJS6_EPS6_EEPT_S9_DpOT0_, symObjAddr: 0x4EE0, symBinAddr: 0x10000F7F0, symSize: 0x40 }
  - { offsetInCU: 0x11DF0, offset: 0x36005, size: 0x8, addend: 0x0, symName: __ZNSt3__14prevB8ue170006IPNS_6vectorINS1_IfNS_9allocatorIfEEEENS2_IS4_EEEEEENS_9enable_ifIXsr29__has_input_iterator_categoryIT_EE5valueES9_E4typeES9_NS_15iterator_traitsIS9_E15difference_typeE, symObjAddr: 0x51B0, symBinAddr: 0x10000FA20, symSize: 0x30 }
  - { offsetInCU: 0x11E33, offset: 0x36048, size: 0x8, addend: 0x0, symName: __ZNSt3__19__advanceB8ue170006IPNS_6vectorINS1_IfNS_9allocatorIfEEEENS2_IS4_EEEEEEvRT_NS_15iterator_traitsIS8_E15difference_typeENS_26random_access_iterator_tagE, symObjAddr: 0x5220, symBinAddr: 0x10000FA80, symSize: 0x20 }
  - { offsetInCU: 0x11E7C, offset: 0x36091, size: 0x8, addend: 0x0, symName: __ZNSt3__119__allocator_destroyB8ue170006INS_9allocatorINS_6vectorINS2_IfNS1_IfEEEENS1_IS4_EEEEEENS_16reverse_iteratorINS8_IPS6_EEEESB_EEvRT_T0_T1_, symObjAddr: 0x5370, symBinAddr: 0x10000FBD0, symSize: 0x70 }
  - { offsetInCU: 0x11EDF, offset: 0x360F4, size: 0x8, addend: 0x0, symName: __ZNSt3__1neB8ue170006INS_16reverse_iteratorIPNS_6vectorINS2_IfNS_9allocatorIfEEEENS3_IS5_EEEEEES9_EEbRKNS1_IT_EERKNS1_IT0_EE, symObjAddr: 0x5410, symBinAddr: 0x10000FC70, symSize: 0x50 }
  - { offsetInCU: 0x11F2B, offset: 0x36140, size: 0x8, addend: 0x0, symName: __ZNSt3__112__to_addressB8ue170006INS_16reverse_iteratorINS1_IPNS_6vectorINS2_IfNS_9allocatorIfEEEENS3_IS5_EEEEEEEEvEEu7__decayIDTclsr19__to_address_helperIT_EE6__callclsr3stdE7declvalIRKSB_EEEEESD_, symObjAddr: 0x5480, symBinAddr: 0x10000FCC0, symSize: 0x20 }
  - { offsetInCU: 0x11F8A, offset: 0x3619F, size: 0x8, addend: 0x0, symName: __ZNSt3__14prevB8ue170006INS_16reverse_iteratorIPNS_6vectorINS2_IfNS_9allocatorIfEEEENS3_IS5_EEEEEEEENS_9enable_ifIXsr29__has_input_iterator_categoryIT_EE5valueESB_E4typeESB_NS_15iterator_traitsISB_E15difference_typeE, symObjAddr: 0x5F60, symBinAddr: 0x10000FDC0, symSize: 0x40 }
  - { offsetInCU: 0x11FCD, offset: 0x361E2, size: 0x8, addend: 0x0, symName: __ZNSt3__19__advanceB8ue170006INS_16reverse_iteratorIPNS_6vectorINS2_IfNS_9allocatorIfEEEENS3_IS5_EEEEEEEEvRT_NS_15iterator_traitsISA_E15difference_typeENS_26random_access_iterator_tagE, symObjAddr: 0x5FD0, symBinAddr: 0x10000FE30, symSize: 0x30 }
  - { offsetInCU: 0x1203B, offset: 0x36250, size: 0x8, addend: 0x0, symName: __ZNSt3__112construct_atB8ue170006INS_6vectorIfNS_9allocatorIfEEEEJEPS4_EEPT_S7_DpOT0_, symObjAddr: 0x69B0, symBinAddr: 0x100010460, symSize: 0x30 }
  - { offsetInCU: 0x12097, offset: 0x362AC, size: 0x8, addend: 0x0, symName: __ZNSt3__18distanceB8ue170006IPfEENS_15iterator_traitsIT_E15difference_typeES3_S3_, symObjAddr: 0x99E0, symBinAddr: 0x100010B10, symSize: 0x30 }
  - { offsetInCU: 0x120DA, offset: 0x362EF, size: 0x8, addend: 0x0, symName: __ZNSt3__14nextB8ue170006IPfEENS_9enable_ifIXsr29__has_input_iterator_categoryIT_EE5valueES3_E4typeES3_NS_15iterator_traitsIS3_E15difference_typeE, symObjAddr: 0x9A10, symBinAddr: 0x100010B40, symSize: 0x30 }
  - { offsetInCU: 0x1211D, offset: 0x36332, size: 0x8, addend: 0x0, symName: __ZNSt3__14copyB8ue170006IPfS1_EET0_T_S3_S2_, symObjAddr: 0x9A40, symBinAddr: 0x100010B70, symSize: 0x40 }
  - { offsetInCU: 0x12177, offset: 0x3638C, size: 0x8, addend: 0x0, symName: __ZNSt3__16__copyB8ue170006INS_17_ClassicAlgPolicyEPfS2_S2_EENS_4pairIT0_T2_EES4_T1_S5_, symObjAddr: 0x9B10, symBinAddr: 0x100010C40, symSize: 0x40 }
  - { offsetInCU: 0x121E3, offset: 0x363F8, size: 0x8, addend: 0x0, symName: __ZNSt3__19__advanceB8ue170006IPfEEvRT_NS_15iterator_traitsIS2_E15difference_typeENS_26random_access_iterator_tagE, symObjAddr: 0x9CB0, symBinAddr: 0x100010CB0, symSize: 0x20 }
  - { offsetInCU: 0x1222C, offset: 0x36441, size: 0x8, addend: 0x0, symName: __ZNSt3__130__uninitialized_allocator_copyB8ue170006INS_9allocatorIfEEPfS3_S3_EET2_RT_T0_T1_S4_, symObjAddr: 0x9CD0, symBinAddr: 0x100010CD0, symSize: 0x80 }
  - { offsetInCU: 0x122C9, offset: 0x364DE, size: 0x8, addend: 0x0, symName: __ZNSt3__114__unwrap_rangeB8ue170006IPfS1_EEDaT_T0_, symObjAddr: 0x9D50, symBinAddr: 0x100010D50, symSize: 0x40 }
  - { offsetInCU: 0x12315, offset: 0x3652A, size: 0x8, addend: 0x0, symName: __ZNSt3__135__uninitialized_allocator_copy_implB8ue170006INS_9allocatorIfEEfffLPv0EEEPT2_RT_PT0_S9_S5_, symObjAddr: 0x9D90, symBinAddr: 0x100010D90, symSize: 0x30 }
  - { offsetInCU: 0x12396, offset: 0x365AB, size: 0x8, addend: 0x0, symName: __ZNSt3__113__unwrap_iterB8ue170006IPfNS_18__unwrap_iter_implIS1_Lb1EEELi0EEEDTclsrT0_8__unwrapclsr3stdE7declvalIT_EEEES5_, symObjAddr: 0x9DC0, symBinAddr: 0x100010DC0, symSize: 0x20 }
  - { offsetInCU: 0x123DA, offset: 0x365EF, size: 0x8, addend: 0x0, symName: __ZNSt3__113__rewrap_iterB8ue170006IPfS1_NS_18__unwrap_iter_implIS1_Lb1EEEEET_S4_T0_, symObjAddr: 0x9DE0, symBinAddr: 0x100010DE0, symSize: 0x40 }
  - { offsetInCU: 0x12622, offset: 0x36837, size: 0x8, addend: 0x0, symName: __ZNSt3__123__dispatch_copy_or_moveB8ue170006INS_17_ClassicAlgPolicyENS_11__copy_loopIS1_EENS_14__copy_trivialEPfS5_S5_EENS_4pairIT2_T4_EES7_T3_S8_, symObjAddr: 0x9F40, symBinAddr: 0x100010F40, symSize: 0x40 }
  - { offsetInCU: 0x126A0, offset: 0x368B5, size: 0x8, addend: 0x0, symName: __ZNSt3__121__unwrap_and_dispatchB8ue170006INS_10__overloadINS_11__copy_loopINS_17_ClassicAlgPolicyEEENS_14__copy_trivialEEEPfS7_S7_Li0EEENS_4pairIT0_T2_EES9_T1_SA_, symObjAddr: 0x9F80, symBinAddr: 0x100010F80, symSize: 0xB0 }
  - { offsetInCU: 0x12775, offset: 0x3698A, size: 0x8, addend: 0x0, symName: __ZNSt3__19make_pairB8ue170006IPfS1_EENS_4pairINS_18__unwrap_ref_decayIT_E4typeENS3_IT0_E4typeEEEOS4_OS7_, symObjAddr: 0xA070, symBinAddr: 0x100011070, symSize: 0x30 }
  - { offsetInCU: 0x127C4, offset: 0x369D9, size: 0x8, addend: 0x0, symName: __ZNSt3__114__rewrap_rangeB8ue170006IPfS1_S1_EET0_S2_T1_, symObjAddr: 0xA0A0, symBinAddr: 0x1000110A0, symSize: 0x30 }
  - { offsetInCU: 0x12819, offset: 0x36A2E, size: 0x8, addend: 0x0, symName: __ZNSt3__119__copy_trivial_implB8ue170006IffEENS_4pairIPT_PT0_EES3_S3_S5_, symObjAddr: 0xA0D0, symBinAddr: 0x1000110D0, symSize: 0x70 }
  - { offsetInCU: 0x12881, offset: 0x36A96, size: 0x8, addend: 0x0, symName: __ZNSt3__119__constexpr_memmoveB8ue170006IffLi0EEEPT_S2_PT0_NS_15__element_countE, symObjAddr: 0xA140, symBinAddr: 0x100011140, symSize: 0x50 }
  - { offsetInCU: 0x128EF, offset: 0x36B04, size: 0x8, addend: 0x0, symName: __ZNSt3__19make_pairB8ue170006IRPfS1_EENS_4pairINS_18__unwrap_ref_decayIT_E4typeENS4_IT0_E4typeEEEOS5_OS8_, symObjAddr: 0xA190, symBinAddr: 0x100011190, symSize: 0x30 }
  - { offsetInCU: 0x1293E, offset: 0x36B53, size: 0x8, addend: 0x0, symName: __ZNSt3__110__distanceB8ue170006IPfEENS_15iterator_traitsIT_E15difference_typeES3_S3_NS_26random_access_iterator_tagE, symObjAddr: 0xA290, symBinAddr: 0x100011250, symSize: 0x20 }
  - { offsetInCU: 0x1298B, offset: 0x36BA0, size: 0x8, addend: 0x0, symName: __ZNSt3__1eqB8ue170006IcNS_11char_traitsIcEEEEbNS_17basic_string_viewIT_T0_EES6_, symObjAddr: 0xA510, symBinAddr: 0x1000113D0, symSize: 0x90 }
  - { offsetInCU: 0x129DA, offset: 0x36BEF, size: 0x8, addend: 0x0, symName: __ZNSt3__112__to_addressB8ue170006IKcEEPT_S3_, symObjAddr: 0xA840, symBinAddr: 0x1000116B0, symSize: 0x10 }
  - { offsetInCU: 0x12A42, offset: 0x36C57, size: 0x8, addend: 0x0, symName: __ZNSt3__128__char_traits_length_checkedB8ue170006INS_11char_traitsIcEEEEmPKNT_9char_typeE, symObjAddr: 0xAA20, symBinAddr: 0x1000117E0, symSize: 0x20 }
  - { offsetInCU: 0x12A79, offset: 0x36C8E, size: 0x8, addend: 0x0, symName: __ZNSt3__118generate_canonicalB8ue170006IfLm24ENS_13random_deviceEEET_RT1_, symObjAddr: 0xBC80, symBinAddr: 0x100011A80, symSize: 0x100 }
  - { offsetInCU: 0x1359C, offset: 0x377B1, size: 0x8, addend: 0x0, symName: __ZNSt3__16vectorINS0_INS0_IfNS_9allocatorIfEEEENS1_IS3_EEEENS1_IS5_EEE26__swap_out_circular_bufferERNS_14__split_bufferIS5_RS6_EE, symObjAddr: 0x3D80, symBinAddr: 0x10000EBB0, symSize: 0x120 }
  - { offsetInCU: 0x1577A, offset: 0x3998F, size: 0x8, addend: 0x0, symName: __ZN9NeuralNetC2Ev, symObjAddr: 0x0, symBinAddr: 0x10000B420, symSize: 0x80 }
  - { offsetInCU: 0x157A6, offset: 0x399BB, size: 0x8, addend: 0x0, symName: __ZNSt3__16vectorINS0_INS0_IfNS_9allocatorIfEEEENS1_IS3_EEEENS1_IS5_EEEC1B8ue170006Ev, symObjAddr: 0xC0, symBinAddr: 0x10000B4A0, symSize: 0x20 }
  - { offsetInCU: 0x157D0, offset: 0x399E5, size: 0x8, addend: 0x0, symName: __ZN9NeuralNetC1Ev, symObjAddr: 0xE0, symBinAddr: 0x10000B4C0, symSize: 0x20 }
  - { offsetInCU: 0x157FC, offset: 0x39A11, size: 0x8, addend: 0x0, symName: __ZN9NeuralNetC2Ei, symObjAddr: 0x100, symBinAddr: 0x10000B4E0, symSize: 0x80 }
  - { offsetInCU: 0x15836, offset: 0x39A4B, size: 0x8, addend: 0x0, symName: __ZN9NeuralNetC1Ei, symObjAddr: 0x180, symBinAddr: 0x10000B560, symSize: 0x30 }
  - { offsetInCU: 0x15870, offset: 0x39A85, size: 0x8, addend: 0x0, symName: __ZN9NeuralNetC2Eii, symObjAddr: 0x1B0, symBinAddr: 0x10000B590, symSize: 0x80 }
  - { offsetInCU: 0x158B8, offset: 0x39ACD, size: 0x8, addend: 0x0, symName: __ZN9NeuralNetC1Eii, symObjAddr: 0x230, symBinAddr: 0x10000B610, symSize: 0x30 }
  - { offsetInCU: 0x15900, offset: 0x39B15, size: 0x8, addend: 0x0, symName: __ZN9NeuralNetC2Eiii, symObjAddr: 0x260, symBinAddr: 0x10000B640, symSize: 0x90 }
  - { offsetInCU: 0x15956, offset: 0x39B6B, size: 0x8, addend: 0x0, symName: __ZN9NeuralNetC1Eiii, symObjAddr: 0x2F0, symBinAddr: 0x10000B6D0, symSize: 0x30 }
  - { offsetInCU: 0x159AC, offset: 0x39BC1, size: 0x8, addend: 0x0, symName: __ZN9NeuralNet9getParamsENSt3__112basic_stringIcNS0_11char_traitsIcEENS0_9allocatorIcEEEE, symObjAddr: 0x320, symBinAddr: 0x10000B700, symSize: 0x670 }
  - { offsetInCU: 0x15B4C, offset: 0x39D61, size: 0x8, addend: 0x0, symName: __ZNSt3__114basic_ifstreamIcNS_11char_traitsIcEEEC1ERKNS_12basic_stringIcS2_NS_9allocatorIcEEEEj, symObjAddr: 0x990, symBinAddr: 0x10000BD70, symSize: 0x160 }
  - { offsetInCU: 0x15B96, offset: 0x39DAB, size: 0x8, addend: 0x0, symName: __ZNSt3__16vectorINS0_INS0_IfNS_9allocatorIfEEEENS1_IS3_EEEENS1_IS5_EEE6resizeEm, symObjAddr: 0xDE0, symBinAddr: 0x10000C1C0, symSize: 0x80 }
  - { offsetInCU: 0x15BDC, offset: 0x39DF1, size: 0x8, addend: 0x0, symName: __ZNSt3__16vectorINS0_IfNS_9allocatorIfEEEENS1_IS3_EEE6resizeEm, symObjAddr: 0xE60, symBinAddr: 0x10000C240, symSize: 0x80 }
  - { offsetInCU: 0x15C22, offset: 0x39E37, size: 0x8, addend: 0x0, symName: __ZNSt3__16vectorIfNS_9allocatorIfEEE6resizeEm, symObjAddr: 0xF00, symBinAddr: 0x10000C2C0, symSize: 0x80 }
  - { offsetInCU: 0x15C68, offset: 0x39E7D, size: 0x8, addend: 0x0, symName: __ZNSt3__16vectorINS0_INS0_IfNS_9allocatorIfEEEENS1_IS3_EEEENS1_IS5_EEEixB8ue170006Em, symObjAddr: 0xF80, symBinAddr: 0x10000C340, symSize: 0x20 }
  - { offsetInCU: 0x15C9F, offset: 0x39EB4, size: 0x8, addend: 0x0, symName: __ZNSt3__16vectorIfNS_9allocatorIfEEEixB8ue170006Em, symObjAddr: 0xFA0, symBinAddr: 0x10000C360, symSize: 0x20 }
  - { offsetInCU: 0x15CDB, offset: 0x39EF0, size: 0x8, addend: 0x0, symName: __ZN9NeuralNet16initializeParamsEv, symObjAddr: 0x1100, symBinAddr: 0x10000C3D0, symSize: 0x780 }
  - { offsetInCU: 0x15D89, offset: 0x39F9E, size: 0x8, addend: 0x0, symName: __ZNSt3__125uniform_real_distributionIfEC1B8ue170006Eff, symObjAddr: 0x18F0, symBinAddr: 0x10000CB50, symSize: 0x30 }
  - { offsetInCU: 0x15DD5, offset: 0x39FEA, size: 0x8, addend: 0x0, symName: __ZNSt3__125uniform_real_distributionIfEclB8ue170006INS_13random_deviceEEEfRT_, symObjAddr: 0x1920, symBinAddr: 0x10000CB80, symSize: 0x30 }
  - { offsetInCU: 0x15E12, offset: 0x3A027, size: 0x8, addend: 0x0, symName: __ZN9NeuralNet10saveParamsENSt3__112basic_stringIcNS0_11char_traitsIcEENS0_9allocatorIcEEEE, symObjAddr: 0x1950, symBinAddr: 0x10000CBB0, symSize: 0x430 }
  - { offsetInCU: 0x15EC0, offset: 0x3A0D5, size: 0x8, addend: 0x0, symName: __ZNSt3__114basic_ofstreamIcNS_11char_traitsIcEEEC1ERKNS_12basic_stringIcS2_NS_9allocatorIcEEEEj, symObjAddr: 0x1D80, symBinAddr: 0x10000CFE0, symSize: 0x160 }
  - { offsetInCU: 0x15F0A, offset: 0x3A11F, size: 0x8, addend: 0x0, symName: __ZNSt3__114basic_ofstreamIcNS_11char_traitsIcEEE5closeEv, symObjAddr: 0x1F10, symBinAddr: 0x10000D140, symSize: 0x50 }
  - { offsetInCU: 0x15F37, offset: 0x3A14C, size: 0x8, addend: 0x0, symName: __ZNSt3__114basic_ofstreamIcNS_11char_traitsIcEEED1Ev, symObjAddr: 0x1F60, symBinAddr: 0x10000D190, symSize: 0x40 }
  - { offsetInCU: 0x15F64, offset: 0x3A179, size: 0x8, addend: 0x0, symName: __ZN9NeuralNet7feedfwdERNSt3__16vectorIfNS0_9allocatorIfEEEE, symObjAddr: 0x1FA0, symBinAddr: 0x10000D1D0, symSize: 0x270 }
  - { offsetInCU: 0x15FE0, offset: 0x3A1F5, size: 0x8, addend: 0x0, symName: __ZNSt3__16vectorIfNS_9allocatorIfEEEaSB8ue170006ERKS3_, symObjAddr: 0x2210, symBinAddr: 0x10000D440, symSize: 0x60 }
  - { offsetInCU: 0x16017, offset: 0x3A22C, size: 0x8, addend: 0x0, symName: __ZN9NeuralNet10activationEf, symObjAddr: 0x2270, symBinAddr: 0x10000D4A0, symSize: 0x130 }
  - { offsetInCU: 0x1604D, offset: 0x3A262, size: 0x8, addend: 0x0, symName: __ZN9NeuralNet13activatefinalERNSt3__16vectorIfNS0_9allocatorIfEEEE, symObjAddr: 0x23A0, symBinAddr: 0x10000D5D0, symSize: 0x1F0 }
  - { offsetInCU: 0x16101, offset: 0x3A316, size: 0x8, addend: 0x0, symName: __ZN9NeuralNet6OutputEv, symObjAddr: 0x2590, symBinAddr: 0x10000D7C0, symSize: 0x50 }
  - { offsetInCU: 0x16129, offset: 0x3A33E, size: 0x8, addend: 0x0, symName: __ZNSt3__16vectorIfNS_9allocatorIfEEEC1ERKS3_, symObjAddr: 0x25E0, symBinAddr: 0x10000D810, symSize: 0x30 }
  - { offsetInCU: 0x16163, offset: 0x3A378, size: 0x8, addend: 0x0, symName: __Z3expB8ue170006f, symObjAddr: 0x2670, symBinAddr: 0x10000D8A0, symSize: 0x20 }
  - { offsetInCU: 0x16192, offset: 0x3A3A7, size: 0x8, addend: 0x0, symName: __ZN9NeuralNet16actfn_derivativeEf, symObjAddr: 0x2750, symBinAddr: 0x10000D8C0, symSize: 0xD0 }
  - { offsetInCU: 0x161CA, offset: 0x3A3DF, size: 0x8, addend: 0x0, symName: __ZN9NeuralNet8gradcalcEiRKNSt3__16vectorIfNS0_9allocatorIfEEEE, symObjAddr: 0x2820, symBinAddr: 0x10000D990, symSize: 0x450 }
  - { offsetInCU: 0x16289, offset: 0x3A49E, size: 0x8, addend: 0x0, symName: __ZNKSt3__16vectorIfNS_9allocatorIfEEE5emptyB8ue170006Ev, symObjAddr: 0x2C90, symBinAddr: 0x10000DDE0, symSize: 0x20 }
  - { offsetInCU: 0x162AF, offset: 0x3A4C4, size: 0x8, addend: 0x0, symName: __ZNKSt3__16vectorIfNS_9allocatorIfEEEixB8ue170006Em, symObjAddr: 0x2CB0, symBinAddr: 0x10000DE00, symSize: 0x20 }
  - { offsetInCU: 0x162E6, offset: 0x3A4FB, size: 0x8, addend: 0x0, symName: __ZN9NeuralNet6costfnEiRKNSt3__16vectorIfNS0_9allocatorIfEEEE, symObjAddr: 0x2CD0, symBinAddr: 0x10000DE20, symSize: 0x520 }
  - { offsetInCU: 0x1634A, offset: 0x3A55F, size: 0x8, addend: 0x0, symName: __Z3logB8ue170006f, symObjAddr: 0x31F0, symBinAddr: 0x10000E340, symSize: 0x20 }
  - { offsetInCU: 0x16379, offset: 0x3A58E, size: 0x8, addend: 0x0, symName: __ZN9NeuralNet15initializestepsEv, symObjAddr: 0x3210, symBinAddr: 0x10000E360, symSize: 0xF0 }
  - { offsetInCU: 0x163ED, offset: 0x3A602, size: 0x8, addend: 0x0, symName: __ZN9NeuralNet10addtostepsEf, symObjAddr: 0x3300, symBinAddr: 0x10000E450, symSize: 0x140 }
  - { offsetInCU: 0x16470, offset: 0x3A685, size: 0x8, addend: 0x0, symName: __ZN9NeuralNet13minibatchdescEi, symObjAddr: 0x3440, symBinAddr: 0x10000E590, symSize: 0x130 }
  - { offsetInCU: 0x164FF, offset: 0x3A714, size: 0x8, addend: 0x0, symName: __ZNSt3__16vectorINS0_INS0_IfNS_9allocatorIfEEEENS1_IS3_EEEENS1_IS5_EEEC2B8ue170006Ev, symObjAddr: 0x3840, symBinAddr: 0x10000E6C0, symSize: 0x50 }
  - { offsetInCU: 0x16529, offset: 0x3A73E, size: 0x8, addend: 0x0, symName: __ZNSt3__117__compressed_pairIPNS_6vectorINS1_IfNS_9allocatorIfEEEENS2_IS4_EEEENS2_IS6_EEEC1B8ue170006IDnNS_18__default_init_tagEEEOT_OT0_, symObjAddr: 0x3890, symBinAddr: 0x10000E710, symSize: 0x30 }
  - { offsetInCU: 0x16581, offset: 0x3A796, size: 0x8, addend: 0x0, symName: __ZNSt3__117__compressed_pairIPNS_6vectorINS1_IfNS_9allocatorIfEEEENS2_IS4_EEEENS2_IS6_EEEC2B8ue170006IDnNS_18__default_init_tagEEEOT_OT0_, symObjAddr: 0x38C0, symBinAddr: 0x10000E740, symSize: 0x40 }
  - { offsetInCU: 0x165D9, offset: 0x3A7EE, size: 0x8, addend: 0x0, symName: __ZNSt3__122__compressed_pair_elemIPNS_6vectorINS1_IfNS_9allocatorIfEEEENS2_IS4_EEEELi0ELb0EEC2B8ue170006IDnvEEOT_, symObjAddr: 0x3900, symBinAddr: 0x10000E780, symSize: 0x20 }
  - { offsetInCU: 0x1661B, offset: 0x3A830, size: 0x8, addend: 0x0, symName: __ZNSt3__122__compressed_pair_elemINS_9allocatorINS_6vectorINS2_IfNS1_IfEEEENS1_IS4_EEEEEELi1ELb1EEC2B8ue170006ENS_18__default_init_tagE, symObjAddr: 0x3920, symBinAddr: 0x10000E7A0, symSize: 0x20 }
  - { offsetInCU: 0x1664F, offset: 0x3A864, size: 0x8, addend: 0x0, symName: __ZNSt3__19allocatorINS_6vectorINS1_IfNS0_IfEEEENS0_IS3_EEEEEC2B8ue170006Ev, symObjAddr: 0x3940, symBinAddr: 0x10000E7C0, symSize: 0x20 }
  - { offsetInCU: 0x16679, offset: 0x3A88E, size: 0x8, addend: 0x0, symName: __ZNSt3__116__non_trivial_ifILb1ENS_9allocatorINS_6vectorINS2_IfNS1_IfEEEENS1_IS4_EEEEEEEC2B8ue170006Ev, symObjAddr: 0x3960, symBinAddr: 0x10000E7E0, symSize: 0x10 }
  - { offsetInCU: 0x166A3, offset: 0x3A8B8, size: 0x8, addend: 0x0, symName: __ZNSt3__16vectorINS0_INS0_IfNS_9allocatorIfEEEENS1_IS3_EEEENS1_IS5_EEE8__appendEm, symObjAddr: 0x39A0, symBinAddr: 0x10000E7F0, symSize: 0x100 }
  - { offsetInCU: 0x166FE, offset: 0x3A913, size: 0x8, addend: 0x0, symName: __ZNSt3__16vectorINS0_INS0_IfNS_9allocatorIfEEEENS1_IS3_EEEENS1_IS5_EEE17__destruct_at_endB8ue170006EPS5_, symObjAddr: 0x3AA0, symBinAddr: 0x10000E8F0, symSize: 0x50 }
  - { offsetInCU: 0x16742, offset: 0x3A957, size: 0x8, addend: 0x0, symName: __ZNSt3__16vectorINS0_INS0_IfNS_9allocatorIfEEEENS1_IS3_EEEENS1_IS5_EEE9__end_capB8ue170006Ev, symObjAddr: 0x3AF0, symBinAddr: 0x10000E940, symSize: 0x20 }
  - { offsetInCU: 0x16768, offset: 0x3A97D, size: 0x8, addend: 0x0, symName: __ZNSt3__16vectorINS0_INS0_IfNS_9allocatorIfEEEENS1_IS3_EEEENS1_IS5_EEE18__construct_at_endEm, symObjAddr: 0x3B10, symBinAddr: 0x10000E960, symSize: 0xC0 }
  - { offsetInCU: 0x167DA, offset: 0x3A9EF, size: 0x8, addend: 0x0, symName: __ZNKSt3__16vectorINS0_INS0_IfNS_9allocatorIfEEEENS1_IS3_EEEENS1_IS5_EEE11__recommendB8ue170006Em, symObjAddr: 0x3BF0, symBinAddr: 0x10000EA20, symSize: 0xA0 }
  - { offsetInCU: 0x1682F, offset: 0x3AA44, size: 0x8, addend: 0x0, symName: __ZNSt3__114__split_bufferINS_6vectorINS1_IfNS_9allocatorIfEEEENS2_IS4_EEEERNS2_IS6_EEEC1EmmS8_, symObjAddr: 0x3C90, symBinAddr: 0x10000EAC0, symSize: 0x40 }
  - { offsetInCU: 0x16885, offset: 0x3AA9A, size: 0x8, addend: 0x0, symName: __ZNSt3__114__split_bufferINS_6vectorINS1_IfNS_9allocatorIfEEEENS2_IS4_EEEERNS2_IS6_EEE18__construct_at_endEm, symObjAddr: 0x3CD0, symBinAddr: 0x10000EB00, symSize: 0xB0 }
  - { offsetInCU: 0x168CA, offset: 0x3AADF, size: 0x8, addend: 0x0, symName: __ZNSt3__114__split_bufferINS_6vectorINS1_IfNS_9allocatorIfEEEENS2_IS4_EEEERNS2_IS6_EEED1Ev, symObjAddr: 0x3EA0, symBinAddr: 0x10000ECD0, symSize: 0x20 }
  - { offsetInCU: 0x168F6, offset: 0x3AB0B, size: 0x8, addend: 0x0, symName: __ZNSt3__117__compressed_pairIPNS_6vectorINS1_IfNS_9allocatorIfEEEENS2_IS4_EEEENS2_IS6_EEE5firstB8ue170006Ev, symObjAddr: 0x3EC0, symBinAddr: 0x10000ECF0, symSize: 0x20 }
  - { offsetInCU: 0x1691C, offset: 0x3AB31, size: 0x8, addend: 0x0, symName: __ZNSt3__122__compressed_pair_elemIPNS_6vectorINS1_IfNS_9allocatorIfEEEENS2_IS4_EEEELi0ELb0EE5__getB8ue170006Ev, symObjAddr: 0x3EE0, symBinAddr: 0x10000ED10, symSize: 0x10 }
  - { offsetInCU: 0x1695D, offset: 0x3AB72, size: 0x8, addend: 0x0, symName: __ZNSt3__16vectorINS0_INS0_IfNS_9allocatorIfEEEENS1_IS3_EEEENS1_IS5_EEE21_ConstructTransactionC1B8ue170006ERS7_m, symObjAddr: 0x3EF0, symBinAddr: 0x10000ED20, symSize: 0x30 }
  - { offsetInCU: 0x169A5, offset: 0x3ABBA, size: 0x8, addend: 0x0, symName: __ZNSt3__116allocator_traitsINS_9allocatorINS_6vectorINS2_IfNS1_IfEEEENS1_IS4_EEEEEEE9constructB8ue170006IS6_JEvvEEvRS7_PT_DpOT0_, symObjAddr: 0x3F20, symBinAddr: 0x10000ED50, symSize: 0x20 }
  - { offsetInCU: 0x169E4, offset: 0x3ABF9, size: 0x8, addend: 0x0, symName: __ZNSt3__16vectorINS0_INS0_IfNS_9allocatorIfEEEENS1_IS3_EEEENS1_IS5_EEE21_ConstructTransactionD1B8ue170006Ev, symObjAddr: 0x3F50, symBinAddr: 0x10000ED70, symSize: 0x20 }
  - { offsetInCU: 0x16A0E, offset: 0x3AC23, size: 0x8, addend: 0x0, symName: __ZNSt3__16vectorINS0_INS0_IfNS_9allocatorIfEEEENS1_IS3_EEEENS1_IS5_EEE21_ConstructTransactionC2B8ue170006ERS7_m, symObjAddr: 0x3F70, symBinAddr: 0x10000ED90, symSize: 0x40 }
  - { offsetInCU: 0x16A56, offset: 0x3AC6B, size: 0x8, addend: 0x0, symName: __ZNSt3__16vectorINS0_INS0_IfNS_9allocatorIfEEEENS1_IS3_EEEENS1_IS5_EEE21_ConstructTransactionD2B8ue170006Ev, symObjAddr: 0x3FE0, symBinAddr: 0x10000EE00, symSize: 0x20 }
  - { offsetInCU: 0x16A80, offset: 0x3AC95, size: 0x8, addend: 0x0, symName: __ZNKSt3__16vectorINS0_INS0_IfNS_9allocatorIfEEEENS1_IS3_EEEENS1_IS5_EEE8max_sizeEv, symObjAddr: 0x4030, symBinAddr: 0x10000EE20, symSize: 0x60 }
  - { offsetInCU: 0x16AA8, offset: 0x3ACBD, size: 0x8, addend: 0x0, symName: __ZNKSt3__16vectorINS0_INS0_IfNS_9allocatorIfEEEENS1_IS3_EEEENS1_IS5_EEE20__throw_length_errorB8ue170006Ev, symObjAddr: 0x4090, symBinAddr: 0x10000EE80, symSize: 0x20 }
  - { offsetInCU: 0x16AD9, offset: 0x3ACEE, size: 0x8, addend: 0x0, symName: __ZNSt3__116allocator_traitsINS_9allocatorINS_6vectorINS2_IfNS1_IfEEEENS1_IS4_EEEEEEE8max_sizeB8ue170006IS7_vvEEmRKS7_, symObjAddr: 0x4150, symBinAddr: 0x10000EEA0, symSize: 0x30 }
  - { offsetInCU: 0x16B04, offset: 0x3AD19, size: 0x8, addend: 0x0, symName: __ZNKSt3__16vectorINS0_INS0_IfNS_9allocatorIfEEEENS1_IS3_EEEENS1_IS5_EEE7__allocB8ue170006Ev, symObjAddr: 0x4180, symBinAddr: 0x10000EED0, symSize: 0x20 }
  - { offsetInCU: 0x16B2A, offset: 0x3AD3F, size: 0x8, addend: 0x0, symName: __ZNKSt3__117__compressed_pairIPNS_6vectorINS1_IfNS_9allocatorIfEEEENS2_IS4_EEEENS2_IS6_EEE6secondB8ue170006Ev, symObjAddr: 0x4250, symBinAddr: 0x10000EEF0, symSize: 0x20 }
  - { offsetInCU: 0x16B50, offset: 0x3AD65, size: 0x8, addend: 0x0, symName: __ZNKSt3__122__compressed_pair_elemINS_9allocatorINS_6vectorINS2_IfNS1_IfEEEENS1_IS4_EEEEEELi1ELb1EE5__getB8ue170006Ev, symObjAddr: 0x4270, symBinAddr: 0x10000EF10, symSize: 0x10 }
  - { offsetInCU: 0x16B76, offset: 0x3AD8B, size: 0x8, addend: 0x0, symName: __ZNSt3__114__split_bufferINS_6vectorINS1_IfNS_9allocatorIfEEEENS2_IS4_EEEERNS2_IS6_EEEC2EmmS8_, symObjAddr: 0x4410, symBinAddr: 0x10000EF20, symSize: 0xC0 }
  - { offsetInCU: 0x16BE9, offset: 0x3ADFE, size: 0x8, addend: 0x0, symName: __ZNSt3__117__compressed_pairIPNS_6vectorINS1_IfNS_9allocatorIfEEEENS2_IS4_EEEERNS2_IS6_EEEC1B8ue170006IDnS9_EEOT_OT0_, symObjAddr: 0x44D0, symBinAddr: 0x10000EFE0, symSize: 0x30 }
  - { offsetInCU: 0x16C41, offset: 0x3AE56, size: 0x8, addend: 0x0, symName: __ZNSt3__114__split_bufferINS_6vectorINS1_IfNS_9allocatorIfEEEENS2_IS4_EEEERNS2_IS6_EEE7__allocB8ue170006Ev, symObjAddr: 0x4540, symBinAddr: 0x10000F050, symSize: 0x20 }
  - { offsetInCU: 0x16C67, offset: 0x3AE7C, size: 0x8, addend: 0x0, symName: __ZNSt3__114__split_bufferINS_6vectorINS1_IfNS_9allocatorIfEEEENS2_IS4_EEEERNS2_IS6_EEE9__end_capB8ue170006Ev, symObjAddr: 0x4560, symBinAddr: 0x10000F070, symSize: 0x20 }
  - { offsetInCU: 0x16C8D, offset: 0x3AEA2, size: 0x8, addend: 0x0, symName: __ZNSt3__117__compressed_pairIPNS_6vectorINS1_IfNS_9allocatorIfEEEENS2_IS4_EEEERNS2_IS6_EEEC2B8ue170006IDnS9_EEOT_OT0_, symObjAddr: 0x4580, symBinAddr: 0x10000F090, symSize: 0x40 }
  - { offsetInCU: 0x16CE5, offset: 0x3AEFA, size: 0x8, addend: 0x0, symName: __ZNSt3__122__compressed_pair_elemIRNS_9allocatorINS_6vectorINS2_IfNS1_IfEEEENS1_IS4_EEEEEELi1ELb0EEC2B8ue170006IS8_vEEOT_, symObjAddr: 0x45C0, symBinAddr: 0x10000F0D0, symSize: 0x20 }
  - { offsetInCU: 0x16D27, offset: 0x3AF3C, size: 0x8, addend: 0x0, symName: __ZNSt3__19allocatorINS_6vectorINS1_IfNS0_IfEEEENS0_IS3_EEEEE17allocate_at_leastB8ue170006Em, symObjAddr: 0x4620, symBinAddr: 0x10000F130, symSize: 0x40 }
  - { offsetInCU: 0x16D5B, offset: 0x3AF70, size: 0x8, addend: 0x0, symName: __ZNSt3__19allocatorINS_6vectorINS1_IfNS0_IfEEEENS0_IS3_EEEEE8allocateB8ue170006Em, symObjAddr: 0x4660, symBinAddr: 0x10000F170, symSize: 0x50 }
  - { offsetInCU: 0x16D8F, offset: 0x3AFA4, size: 0x8, addend: 0x0, symName: __ZNSt3__117__compressed_pairIPNS_6vectorINS1_IfNS_9allocatorIfEEEENS2_IS4_EEEERNS2_IS6_EEE6secondB8ue170006Ev, symObjAddr: 0x47C0, symBinAddr: 0x10000F1C0, symSize: 0x20 }
  - { offsetInCU: 0x16DB5, offset: 0x3AFCA, size: 0x8, addend: 0x0, symName: __ZNSt3__122__compressed_pair_elemIRNS_9allocatorINS_6vectorINS2_IfNS1_IfEEEENS1_IS4_EEEEEELi1ELb0EE5__getB8ue170006Ev, symObjAddr: 0x47E0, symBinAddr: 0x10000F1E0, symSize: 0x20 }
  - { offsetInCU: 0x16DDB, offset: 0x3AFF0, size: 0x8, addend: 0x0, symName: __ZNSt3__117__compressed_pairIPNS_6vectorINS1_IfNS_9allocatorIfEEEENS2_IS4_EEEERNS2_IS6_EEE5firstB8ue170006Ev, symObjAddr: 0x4800, symBinAddr: 0x10000F200, symSize: 0x20 }
  - { offsetInCU: 0x16E0B, offset: 0x3B020, size: 0x8, addend: 0x0, symName: __ZNSt3__114__split_bufferINS_6vectorINS1_IfNS_9allocatorIfEEEENS2_IS4_EEEERNS2_IS6_EEE21_ConstructTransactionC1B8ue170006EPPS6_m, symObjAddr: 0x4820, symBinAddr: 0x10000F220, symSize: 0x30 }
  - { offsetInCU: 0x16E51, offset: 0x3B066, size: 0x8, addend: 0x0, symName: __ZNSt3__114__split_bufferINS_6vectorINS1_IfNS_9allocatorIfEEEENS2_IS4_EEEERNS2_IS6_EEE21_ConstructTransactionD1B8ue170006Ev, symObjAddr: 0x4850, symBinAddr: 0x10000F250, symSize: 0x20 }
  - { offsetInCU: 0x16E7B, offset: 0x3B090, size: 0x8, addend: 0x0, symName: __ZNSt3__114__split_bufferINS_6vectorINS1_IfNS_9allocatorIfEEEENS2_IS4_EEEERNS2_IS6_EEE21_ConstructTransactionC2B8ue170006EPPS6_m, symObjAddr: 0x4870, symBinAddr: 0x10000F270, symSize: 0x40 }
  - { offsetInCU: 0x16EC1, offset: 0x3B0D6, size: 0x8, addend: 0x0, symName: __ZNSt3__114__split_bufferINS_6vectorINS1_IfNS_9allocatorIfEEEENS2_IS4_EEEERNS2_IS6_EEE21_ConstructTransactionD2B8ue170006Ev, symObjAddr: 0x48B0, symBinAddr: 0x10000F2B0, symSize: 0x20 }
  - { offsetInCU: 0x16EEB, offset: 0x3B100, size: 0x8, addend: 0x0, symName: __ZNSt3__116reverse_iteratorIPNS_6vectorINS1_IfNS_9allocatorIfEEEENS2_IS4_EEEEEC1B8ue170006ES7_, symObjAddr: 0x4B00, symBinAddr: 0x10000F450, symSize: 0x30 }
  - { offsetInCU: 0x16F23, offset: 0x3B138, size: 0x8, addend: 0x0, symName: __ZNKSt3__116reverse_iteratorIPNS_6vectorINS1_IfNS_9allocatorIfEEEENS2_IS4_EEEEE4baseB8ue170006Ev, symObjAddr: 0x4B30, symBinAddr: 0x10000F480, symSize: 0x20 }
  - { offsetInCU: 0x16F49, offset: 0x3B15E, size: 0x8, addend: 0x0, symName: __ZNKSt3__16vectorINS0_INS0_IfNS_9allocatorIfEEEENS1_IS3_EEEENS1_IS5_EEE14__annotate_newB8ue170006Em, symObjAddr: 0x4B90, symBinAddr: 0x10000F4E0, symSize: 0xA0 }
  - { offsetInCU: 0x16F7E, offset: 0x3B193, size: 0x8, addend: 0x0, symName: __ZNSt3__129_AllocatorDestroyRangeReverseINS_9allocatorINS_6vectorINS2_IfNS1_IfEEEENS1_IS4_EEEEEENS_16reverse_iteratorIPS6_EEEC1B8ue170006ERS7_RSA_SD_, symObjAddr: 0x4CD0, symBinAddr: 0x10000F5E0, symSize: 0x40 }
  - { offsetInCU: 0x16FD5, offset: 0x3B1EA, size: 0x8, addend: 0x0, symName: __ZNSt3__116allocator_traitsINS_9allocatorINS_6vectorINS2_IfNS1_IfEEEENS1_IS4_EEEEEEE9constructB8ue170006IS6_JS6_EvvEEvRS7_PT_DpOT0_, symObjAddr: 0x4D50, symBinAddr: 0x10000F660, symSize: 0x30 }
  - { offsetInCU: 0x17029, offset: 0x3B23E, size: 0x8, addend: 0x0, symName: __ZNKSt3__116reverse_iteratorIPNS_6vectorINS1_IfNS_9allocatorIfEEEENS2_IS4_EEEEEdeB8ue170006Ev, symObjAddr: 0x4DA0, symBinAddr: 0x10000F6B0, symSize: 0x30 }
  - { offsetInCU: 0x1705D, offset: 0x3B272, size: 0x8, addend: 0x0, symName: __ZNSt3__116reverse_iteratorIPNS_6vectorINS1_IfNS_9allocatorIfEEEENS2_IS4_EEEEEppB8ue170006Ev, symObjAddr: 0x4DD0, symBinAddr: 0x10000F6E0, symSize: 0x20 }
  - { offsetInCU: 0x17083, offset: 0x3B298, size: 0x8, addend: 0x0, symName: __ZNSt3__128__exception_guard_exceptionsINS_29_AllocatorDestroyRangeReverseINS_9allocatorINS_6vectorINS3_IfNS2_IfEEEENS2_IS5_EEEEEENS_16reverse_iteratorIPS7_EEEEE10__completeB8ue170006Ev, symObjAddr: 0x4DF0, symBinAddr: 0x10000F700, symSize: 0x20 }
  - { offsetInCU: 0x170A9, offset: 0x3B2BE, size: 0x8, addend: 0x0, symName: __ZNSt3__128__exception_guard_exceptionsINS_29_AllocatorDestroyRangeReverseINS_9allocatorINS_6vectorINS3_IfNS2_IfEEEENS2_IS5_EEEEEENS_16reverse_iteratorIPS7_EEEEED1B8ue170006Ev, symObjAddr: 0x4E10, symBinAddr: 0x10000F720, symSize: 0x20 }
  - { offsetInCU: 0x170D3, offset: 0x3B2E8, size: 0x8, addend: 0x0, symName: __ZNSt3__128__exception_guard_exceptionsINS_29_AllocatorDestroyRangeReverseINS_9allocatorINS_6vectorINS3_IfNS2_IfEEEENS2_IS5_EEEEEENS_16reverse_iteratorIPS7_EEEEEC1B8ue170006ESC_, symObjAddr: 0x4E30, symBinAddr: 0x10000F740, symSize: 0x40 }
  - { offsetInCU: 0x1710B, offset: 0x3B320, size: 0x8, addend: 0x0, symName: __ZNSt3__128__exception_guard_exceptionsINS_29_AllocatorDestroyRangeReverseINS_9allocatorINS_6vectorINS3_IfNS2_IfEEEENS2_IS5_EEEEEENS_16reverse_iteratorIPS7_EEEEEC2B8ue170006ESC_, symObjAddr: 0x4E70, symBinAddr: 0x10000F780, symSize: 0x30 }
  - { offsetInCU: 0x17143, offset: 0x3B358, size: 0x8, addend: 0x0, symName: __ZNSt3__129_AllocatorDestroyRangeReverseINS_9allocatorINS_6vectorINS2_IfNS1_IfEEEENS1_IS4_EEEEEENS_16reverse_iteratorIPS6_EEEC2B8ue170006ERS7_RSA_SD_, symObjAddr: 0x4EA0, symBinAddr: 0x10000F7B0, symSize: 0x40 }
  - { offsetInCU: 0x1719A, offset: 0x3B3AF, size: 0x8, addend: 0x0, symName: __ZNSt3__16vectorINS0_IfNS_9allocatorIfEEEENS1_IS3_EEEC1B8ue170006EOS5_, symObjAddr: 0x4F20, symBinAddr: 0x10000F830, symSize: 0x30 }
  - { offsetInCU: 0x171D5, offset: 0x3B3EA, size: 0x8, addend: 0x0, symName: __ZNSt3__16vectorINS0_IfNS_9allocatorIfEEEENS1_IS3_EEEC2B8ue170006EOS5_, symObjAddr: 0x4F50, symBinAddr: 0x10000F860, symSize: 0xD0 }
  - { offsetInCU: 0x17216, offset: 0x3B42B, size: 0x8, addend: 0x0, symName: __ZNSt3__117__compressed_pairIPNS_6vectorIfNS_9allocatorIfEEEENS2_IS4_EEEC1B8ue170006IDnS6_EEOT_OT0_, symObjAddr: 0x5040, symBinAddr: 0x10000F930, symSize: 0x30 }
  - { offsetInCU: 0x1726E, offset: 0x3B483, size: 0x8, addend: 0x0, symName: __ZNSt3__117__compressed_pairIPNS_6vectorIfNS_9allocatorIfEEEENS2_IS4_EEEC2B8ue170006IDnS6_EEOT_OT0_, symObjAddr: 0x50C0, symBinAddr: 0x10000F960, symSize: 0x40 }
  - { offsetInCU: 0x172C6, offset: 0x3B4DB, size: 0x8, addend: 0x0, symName: __ZNSt3__122__compressed_pair_elemINS_9allocatorINS_6vectorIfNS1_IfEEEEEELi1ELb1EEC2B8ue170006IS5_vEEOT_, symObjAddr: 0x5100, symBinAddr: 0x10000F9A0, symSize: 0x10 }
  - { offsetInCU: 0x1730E, offset: 0x3B523, size: 0x8, addend: 0x0, symName: __ZNSt3__119__to_address_helperINS_16reverse_iteratorIPNS_6vectorINS2_IfNS_9allocatorIfEEEENS3_IS5_EEEEEEvE6__callB8ue170006ERKS9_, symObjAddr: 0x5140, symBinAddr: 0x10000F9B0, symSize: 0x40 }
  - { offsetInCU: 0x17331, offset: 0x3B546, size: 0x8, addend: 0x0, symName: __ZNKSt3__116reverse_iteratorIPNS_6vectorINS1_IfNS_9allocatorIfEEEENS2_IS4_EEEEEptB8ue170006Ev, symObjAddr: 0x5180, symBinAddr: 0x10000F9F0, symSize: 0x30 }
  - { offsetInCU: 0x17357, offset: 0x3B56C, size: 0x8, addend: 0x0, symName: __ZNSt3__128__exception_guard_exceptionsINS_29_AllocatorDestroyRangeReverseINS_9allocatorINS_6vectorINS3_IfNS2_IfEEEENS2_IS5_EEEEEENS_16reverse_iteratorIPS7_EEEEED2B8ue170006Ev, symObjAddr: 0x5240, symBinAddr: 0x10000FAA0, symSize: 0x40 }
  - { offsetInCU: 0x17381, offset: 0x3B596, size: 0x8, addend: 0x0, symName: __ZNKSt3__129_AllocatorDestroyRangeReverseINS_9allocatorINS_6vectorINS2_IfNS1_IfEEEENS1_IS4_EEEEEENS_16reverse_iteratorIPS6_EEEclB8ue170006Ev, symObjAddr: 0x5280, symBinAddr: 0x10000FAE0, symSize: 0xF0 }
  - { offsetInCU: 0x173A8, offset: 0x3B5BD, size: 0x8, addend: 0x0, symName: __ZNSt3__116reverse_iteratorINS0_IPNS_6vectorINS1_IfNS_9allocatorIfEEEENS2_IS4_EEEEEEEC1B8ue170006ES8_, symObjAddr: 0x53E0, symBinAddr: 0x10000FC40, symSize: 0x30 }
  - { offsetInCU: 0x173E0, offset: 0x3B5F5, size: 0x8, addend: 0x0, symName: __ZNSt3__116reverse_iteratorINS0_IPNS_6vectorINS1_IfNS_9allocatorIfEEEENS2_IS4_EEEEEEEppB8ue170006Ev, symObjAddr: 0x54A0, symBinAddr: 0x10000FCE0, symSize: 0x30 }
  - { offsetInCU: 0x17406, offset: 0x3B61B, size: 0x8, addend: 0x0, symName: __ZNKSt3__116reverse_iteratorINS0_IPNS_6vectorINS1_IfNS_9allocatorIfEEEENS2_IS4_EEEEEEE4baseB8ue170006Ev, symObjAddr: 0x54D0, symBinAddr: 0x10000FD10, symSize: 0x20 }
  - { offsetInCU: 0x17432, offset: 0x3B647, size: 0x8, addend: 0x0, symName: __ZNSt3__119__to_address_helperINS_16reverse_iteratorINS1_IPNS_6vectorINS2_IfNS_9allocatorIfEEEENS3_IS5_EEEEEEEEvE6__callB8ue170006ERKSA_, symObjAddr: 0x5ED0, symBinAddr: 0x10000FD30, symSize: 0x40 }
  - { offsetInCU: 0x17455, offset: 0x3B66A, size: 0x8, addend: 0x0, symName: __ZNKSt3__116reverse_iteratorINS0_IPNS_6vectorINS1_IfNS_9allocatorIfEEEENS2_IS4_EEEEEEEptB8ue170006Ev, symObjAddr: 0x5F10, symBinAddr: 0x10000FD70, symSize: 0x50 }
  - { offsetInCU: 0x1747B, offset: 0x3B690, size: 0x8, addend: 0x0, symName: __ZNSt3__116reverse_iteratorIPNS_6vectorINS1_IfNS_9allocatorIfEEEENS2_IS4_EEEEEpLB8ue170006El, symObjAddr: 0x6000, symBinAddr: 0x10000FE60, symSize: 0x30 }
  - { offsetInCU: 0x174AF, offset: 0x3B6C4, size: 0x8, addend: 0x0, symName: __ZNSt3__116reverse_iteratorIPNS_6vectorINS1_IfNS_9allocatorIfEEEENS2_IS4_EEEEEmmB8ue170006Ev, symObjAddr: 0x6030, symBinAddr: 0x10000FE90, symSize: 0x20 }
  - { offsetInCU: 0x174D5, offset: 0x3B6EA, size: 0x8, addend: 0x0, symName: __ZNSt3__116reverse_iteratorINS0_IPNS_6vectorINS1_IfNS_9allocatorIfEEEENS2_IS4_EEEEEEEC2B8ue170006ES8_, symObjAddr: 0x6050, symBinAddr: 0x10000FEB0, symSize: 0x40 }
  - { offsetInCU: 0x1750D, offset: 0x3B722, size: 0x8, addend: 0x0, symName: __ZNSt3__116reverse_iteratorIPNS_6vectorINS1_IfNS_9allocatorIfEEEENS2_IS4_EEEEEC2B8ue170006ES7_, symObjAddr: 0x6090, symBinAddr: 0x10000FEF0, symSize: 0x30 }
  - { offsetInCU: 0x17545, offset: 0x3B75A, size: 0x8, addend: 0x0, symName: __ZNSt3__114__split_bufferINS_6vectorINS1_IfNS_9allocatorIfEEEENS2_IS4_EEEERNS2_IS6_EEED2Ev, symObjAddr: 0x60C0, symBinAddr: 0x10000FF20, symSize: 0x70 }
  - { offsetInCU: 0x17571, offset: 0x3B786, size: 0x8, addend: 0x0, symName: __ZNSt3__114__split_bufferINS_6vectorINS1_IfNS_9allocatorIfEEEENS2_IS4_EEEERNS2_IS6_EEE5clearB8ue170006Ev, symObjAddr: 0x6130, symBinAddr: 0x10000FF90, symSize: 0x20 }
  - { offsetInCU: 0x17597, offset: 0x3B7AC, size: 0x8, addend: 0x0, symName: __ZNKSt3__114__split_bufferINS_6vectorINS1_IfNS_9allocatorIfEEEENS2_IS4_EEEERNS2_IS6_EEE8capacityB8ue170006Ev, symObjAddr: 0x6180, symBinAddr: 0x10000FFB0, symSize: 0x40 }
  - { offsetInCU: 0x175BD, offset: 0x3B7D2, size: 0x8, addend: 0x0, symName: __ZNSt3__114__split_bufferINS_6vectorINS1_IfNS_9allocatorIfEEEENS2_IS4_EEEERNS2_IS6_EEE17__destruct_at_endB8ue170006EPS6_, symObjAddr: 0x61C0, symBinAddr: 0x10000FFF0, symSize: 0x30 }
  - { offsetInCU: 0x175F1, offset: 0x3B806, size: 0x8, addend: 0x0, symName: __ZNSt3__114__split_bufferINS_6vectorINS1_IfNS_9allocatorIfEEEENS2_IS4_EEEERNS2_IS6_EEE17__destruct_at_endB8ue170006EPS6_NS_17integral_constantIbLb0EEE, symObjAddr: 0x61F0, symBinAddr: 0x100010020, symSize: 0x80 }
  - { offsetInCU: 0x17631, offset: 0x3B846, size: 0x8, addend: 0x0, symName: __ZNKSt3__114__split_bufferINS_6vectorINS1_IfNS_9allocatorIfEEEENS2_IS4_EEEERNS2_IS6_EEE9__end_capB8ue170006Ev, symObjAddr: 0x62C0, symBinAddr: 0x1000100A0, symSize: 0x20 }
  - { offsetInCU: 0x17657, offset: 0x3B86C, size: 0x8, addend: 0x0, symName: __ZNKSt3__117__compressed_pairIPNS_6vectorINS1_IfNS_9allocatorIfEEEENS2_IS4_EEEERNS2_IS6_EEE5firstB8ue170006Ev, symObjAddr: 0x62E0, symBinAddr: 0x1000100C0, symSize: 0x20 }
  - { offsetInCU: 0x1767D, offset: 0x3B892, size: 0x8, addend: 0x0, symName: __ZNKSt3__16vectorINS0_INS0_IfNS_9allocatorIfEEEENS1_IS3_EEEENS1_IS5_EEE17__annotate_shrinkB8ue170006Em, symObjAddr: 0x6380, symBinAddr: 0x1000100E0, symSize: 0xA0 }
  - { offsetInCU: 0x176B2, offset: 0x3B8C7, size: 0x8, addend: 0x0, symName: __ZNSt3__16vectorINS0_IfNS_9allocatorIfEEEENS1_IS3_EEE8__appendEm, symObjAddr: 0x6420, symBinAddr: 0x100010180, symSize: 0x100 }
  - { offsetInCU: 0x1770D, offset: 0x3B922, size: 0x8, addend: 0x0, symName: __ZNSt3__16vectorINS0_IfNS_9allocatorIfEEEENS1_IS3_EEE17__destruct_at_endB8ue170006EPS3_, symObjAddr: 0x6520, symBinAddr: 0x100010280, symSize: 0x50 }
  - { offsetInCU: 0x17751, offset: 0x3B966, size: 0x8, addend: 0x0, symName: __ZNSt3__16vectorINS0_IfNS_9allocatorIfEEEENS1_IS3_EEE18__construct_at_endEm, symObjAddr: 0x6570, symBinAddr: 0x1000102D0, symSize: 0xC0 }
  - { offsetInCU: 0x177C3, offset: 0x3B9D8, size: 0x8, addend: 0x0, symName: __ZNSt3__114__split_bufferINS_6vectorIfNS_9allocatorIfEEEERNS2_IS4_EEE18__construct_at_endEm, symObjAddr: 0x6710, symBinAddr: 0x100010390, symSize: 0xB0 }
  - { offsetInCU: 0x17823, offset: 0x3BA38, size: 0x8, addend: 0x0, symName: __ZNSt3__116allocator_traitsINS_9allocatorINS_6vectorIfNS1_IfEEEEEEE9constructB8ue170006IS4_JEvvEEvRS5_PT_DpOT0_, symObjAddr: 0x6930, symBinAddr: 0x100010440, symSize: 0x20 }
  - { offsetInCU: 0x17877, offset: 0x3BA8C, size: 0x8, addend: 0x0, symName: __ZNSt3__114__split_bufferINS_6vectorIfNS_9allocatorIfEEEERNS2_IS4_EEE21_ConstructTransactionC1B8ue170006EPPS4_m, symObjAddr: 0x6F50, symBinAddr: 0x100010490, symSize: 0x30 }
  - { offsetInCU: 0x178BD, offset: 0x3BAD2, size: 0x8, addend: 0x0, symName: __ZNSt3__114__split_bufferINS_6vectorIfNS_9allocatorIfEEEERNS2_IS4_EEE21_ConstructTransactionD1B8ue170006Ev, symObjAddr: 0x6F80, symBinAddr: 0x1000104C0, symSize: 0x20 }
  - { offsetInCU: 0x178E7, offset: 0x3BAFC, size: 0x8, addend: 0x0, symName: __ZNSt3__114__split_bufferINS_6vectorIfNS_9allocatorIfEEEERNS2_IS4_EEE21_ConstructTransactionC2B8ue170006EPPS4_m, symObjAddr: 0x6FA0, symBinAddr: 0x1000104E0, symSize: 0x40 }
  - { offsetInCU: 0x1792D, offset: 0x3BB42, size: 0x8, addend: 0x0, symName: __ZNSt3__114__split_bufferINS_6vectorIfNS_9allocatorIfEEEERNS2_IS4_EEE21_ConstructTransactionD2B8ue170006Ev, symObjAddr: 0x6FE0, symBinAddr: 0x100010520, symSize: 0x20 }
  - { offsetInCU: 0x17957, offset: 0x3BB6C, size: 0x8, addend: 0x0, symName: __ZNKSt3__16vectorINS0_IfNS_9allocatorIfEEEENS1_IS3_EEE17__annotate_shrinkB8ue170006Em, symObjAddr: 0x7E60, symBinAddr: 0x100010540, symSize: 0xA0 }
  - { offsetInCU: 0x1798C, offset: 0x3BBA1, size: 0x8, addend: 0x0, symName: __ZNSt3__16vectorIfNS_9allocatorIfEEE8__appendEm, symObjAddr: 0x7F00, symBinAddr: 0x1000105E0, symSize: 0x100 }
  - { offsetInCU: 0x179E7, offset: 0x3BBFC, size: 0x8, addend: 0x0, symName: __ZNSt3__16vectorIfNS_9allocatorIfEEE17__destruct_at_endB8ue170006EPf, symObjAddr: 0x8000, symBinAddr: 0x1000106E0, symSize: 0x50 }
  - { offsetInCU: 0x17A2B, offset: 0x3BC40, size: 0x8, addend: 0x0, symName: __ZNSt3__114__split_bufferIfRNS_9allocatorIfEEE18__construct_at_endEm, symObjAddr: 0x81F0, symBinAddr: 0x100010730, symSize: 0xB0 }
  - { offsetInCU: 0x17AA0, offset: 0x3BCB5, size: 0x8, addend: 0x0, symName: __ZNSt3__114__split_bufferIfRNS_9allocatorIfEEE21_ConstructTransactionC1B8ue170006EPPfm, symObjAddr: 0x88D0, symBinAddr: 0x1000107E0, symSize: 0x30 }
  - { offsetInCU: 0x17AE6, offset: 0x3BCFB, size: 0x8, addend: 0x0, symName: __ZNSt3__114__split_bufferIfRNS_9allocatorIfEEE21_ConstructTransactionD1B8ue170006Ev, symObjAddr: 0x8900, symBinAddr: 0x100010810, symSize: 0x20 }
  - { offsetInCU: 0x17B10, offset: 0x3BD25, size: 0x8, addend: 0x0, symName: __ZNSt3__114__split_bufferIfRNS_9allocatorIfEEE21_ConstructTransactionC2B8ue170006EPPfm, symObjAddr: 0x8920, symBinAddr: 0x100010830, symSize: 0x40 }
  - { offsetInCU: 0x17B56, offset: 0x3BD6B, size: 0x8, addend: 0x0, symName: __ZNSt3__114__split_bufferIfRNS_9allocatorIfEEE21_ConstructTransactionD2B8ue170006Ev, symObjAddr: 0x8960, symBinAddr: 0x100010870, symSize: 0x20 }
  - { offsetInCU: 0x17B85, offset: 0x3BD9A, size: 0x8, addend: 0x0, symName: __ZNSt3__114basic_ofstreamIcNS_11char_traitsIcEEED2Ev, symObjAddr: 0x9760, symBinAddr: 0x100010890, symSize: 0x60 }
  - { offsetInCU: 0x17BBF, offset: 0x3BDD4, size: 0x8, addend: 0x0, symName: __ZTv0_n24_NSt3__114basic_ofstreamIcNS_11char_traitsIcEEED1Ev, symObjAddr: 0x97C0, symBinAddr: 0x1000108F0, symSize: 0x20 }
  - { offsetInCU: 0x17BD6, offset: 0x3BDEB, size: 0x8, addend: 0x0, symName: __ZNSt3__16vectorIfNS_9allocatorIfEEE19__copy_assign_allocB8ue170006ERKS3_, symObjAddr: 0x97E0, symBinAddr: 0x100010910, symSize: 0x30 }
  - { offsetInCU: 0x17C0B, offset: 0x3BE20, size: 0x8, addend: 0x0, symName: __ZNSt3__16vectorIfNS_9allocatorIfEEE6assignIPfLi0EEEvT_S6_, symObjAddr: 0x9810, symBinAddr: 0x100010940, symSize: 0x60 }
  - { offsetInCU: 0x17C60, offset: 0x3BE75, size: 0x8, addend: 0x0, symName: __ZNSt3__16vectorIfNS_9allocatorIfEEE19__copy_assign_allocB8ue170006ERKS3_NS_17integral_constantIbLb0EEE, symObjAddr: 0x9870, symBinAddr: 0x1000109A0, symSize: 0x10 }
  - { offsetInCU: 0x17C9C, offset: 0x3BEB1, size: 0x8, addend: 0x0, symName: __ZNSt3__16vectorIfNS_9allocatorIfEEE18__assign_with_sizeB8ue170006IPfS5_EEvT_T0_l, symObjAddr: 0x9880, symBinAddr: 0x1000109B0, symSize: 0x160 }
  - { offsetInCU: 0x17D4C, offset: 0x3BF61, size: 0x8, addend: 0x0, symName: __ZNSt3__16vectorIfNS_9allocatorIfEEE18__construct_at_endIPfS5_EEvT_T0_m, symObjAddr: 0x9A80, symBinAddr: 0x100010BB0, symSize: 0x90 }
  - { offsetInCU: 0x17DE3, offset: 0x3BFF8, size: 0x8, addend: 0x0, symName: __ZNSt3__119__unwrap_range_implIPfS1_E8__unwrapB8ue170006ES1_S1_, symObjAddr: 0x9E20, symBinAddr: 0x100010E20, symSize: 0x50 }
  - { offsetInCU: 0x17E1A, offset: 0x3C02F, size: 0x8, addend: 0x0, symName: __ZNSt3__14pairIPfS1_EC1B8ue170006IS1_S1_LPv0EEEOT_OT0_, symObjAddr: 0x9E70, symBinAddr: 0x100010E70, symSize: 0x30 }
  - { offsetInCU: 0x17E78, offset: 0x3C08D, size: 0x8, addend: 0x0, symName: __ZNSt3__14pairIPfS1_EC2B8ue170006IS1_S1_LPv0EEEOT_OT0_, symObjAddr: 0x9EA0, symBinAddr: 0x100010EA0, symSize: 0x30 }
  - { offsetInCU: 0x17ED6, offset: 0x3C0EB, size: 0x8, addend: 0x0, symName: __ZNSt3__118__unwrap_iter_implIPfLb1EE8__unwrapB8ue170006ES1_, symObjAddr: 0x9ED0, symBinAddr: 0x100010ED0, symSize: 0x20 }
  - { offsetInCU: 0x17EF9, offset: 0x3C10E, size: 0x8, addend: 0x0, symName: __ZNSt3__118__unwrap_iter_implIPfLb1EE8__rewrapB8ue170006ES1_S1_, symObjAddr: 0x9EF0, symBinAddr: 0x100010EF0, symSize: 0x50 }
  - { offsetInCU: 0x17F34, offset: 0x3C149, size: 0x8, addend: 0x0, symName: __ZNKSt3__114__copy_trivialclB8ue170006IffLi0EEENS_4pairIPT_PT0_EES4_S4_S6_, symObjAddr: 0xA030, symBinAddr: 0x100011030, symSize: 0x40 }
  - { offsetInCU: 0x17F9C, offset: 0x3C1B1, size: 0x8, addend: 0x0, symName: __ZNSt3__14pairIPfS1_EC1B8ue170006IRS1_S1_LPv0EEEOT_OT0_, symObjAddr: 0xA1C0, symBinAddr: 0x1000111C0, symSize: 0x30 }
  - { offsetInCU: 0x17FFA, offset: 0x3C20F, size: 0x8, addend: 0x0, symName: __ZNSt3__14pairIPfS1_EC2B8ue170006IRS1_S1_LPv0EEEOT_OT0_, symObjAddr: 0xA1F0, symBinAddr: 0x1000111F0, symSize: 0x30 }
  - { offsetInCU: 0x18058, offset: 0x3C26D, size: 0x8, addend: 0x0, symName: __ZNSt3__119__unwrap_range_implIPfS1_E8__rewrapB8ue170006ES1_S1_, symObjAddr: 0xA220, symBinAddr: 0x100011220, symSize: 0x30 }
  - { offsetInCU: 0x18089, offset: 0x3C29E, size: 0x8, addend: 0x0, symName: __ZNSt3__16vectorIfNS_9allocatorIfEEEC2ERKS3_, symObjAddr: 0xA2B0, symBinAddr: 0x100011270, symSize: 0xA0 }
  - { offsetInCU: 0x180C4, offset: 0x3C2D9, size: 0x8, addend: 0x0, symName: __ZNSt3__116allocator_traitsINS_9allocatorIfEEE37select_on_container_copy_constructionB8ue170006IS2_vvEES2_RKS2_, symObjAddr: 0xA350, symBinAddr: 0x100011310, symSize: 0x10 }
  - { offsetInCU: 0x180F3, offset: 0x3C308, size: 0x8, addend: 0x0, symName: __ZNSt3__16vectorIfNS_9allocatorIfEEE16__init_with_sizeB8ue170006IPfS5_EEvT_T0_m, symObjAddr: 0xA360, symBinAddr: 0x100011320, symSize: 0xB0 }
  - { offsetInCU: 0x18167, offset: 0x3C37C, size: 0x8, addend: 0x0, symName: __ZNKSt3__112basic_stringIcNS_11char_traitsIcEENS_9allocatorIcEEEcvNS_17basic_string_viewIcS2_EEB8ue170006Ev, symObjAddr: 0xA5A0, symBinAddr: 0x100011460, symSize: 0x50 }
  - { offsetInCU: 0x1818D, offset: 0x3C3A2, size: 0x8, addend: 0x0, symName: __ZNSt3__117basic_string_viewIcNS_11char_traitsIcEEEC1B8ue170006EPKc, symObjAddr: 0xA5F0, symBinAddr: 0x1000114B0, symSize: 0x30 }
  - { offsetInCU: 0x181C6, offset: 0x3C3DB, size: 0x8, addend: 0x0, symName: __ZNKSt3__117basic_string_viewIcNS_11char_traitsIcEEE4sizeB8ue170006Ev, symObjAddr: 0xA620, symBinAddr: 0x1000114E0, symSize: 0x20 }
  - { offsetInCU: 0x181EC, offset: 0x3C401, size: 0x8, addend: 0x0, symName: __ZNKSt3__117basic_string_viewIcNS_11char_traitsIcEEE7compareES3_, symObjAddr: 0xA640, symBinAddr: 0x100011500, symSize: 0x100 }
  - { offsetInCU: 0x1823F, offset: 0x3C454, size: 0x8, addend: 0x0, symName: __ZNSt3__111char_traitsIcE7compareB8ue170006EPKcS3_m, symObjAddr: 0xA740, symBinAddr: 0x100011600, symSize: 0x30 }
  - { offsetInCU: 0x1827E, offset: 0x3C493, size: 0x8, addend: 0x0, symName: __ZNKSt3__117basic_string_viewIcNS_11char_traitsIcEEE4dataB8ue170006Ev, symObjAddr: 0xA770, symBinAddr: 0x100011630, symSize: 0x20 }
  - { offsetInCU: 0x182A4, offset: 0x3C4B9, size: 0x8, addend: 0x0, symName: __ZNKSt3__112basic_stringIcNS_11char_traitsIcEENS_9allocatorIcEEE4dataB8ue170006Ev, symObjAddr: 0xA790, symBinAddr: 0x100011650, symSize: 0x30 }
  - { offsetInCU: 0x182CA, offset: 0x3C4DF, size: 0x8, addend: 0x0, symName: __ZNSt3__117basic_string_viewIcNS_11char_traitsIcEEEC1B8ue170006EPKcm, symObjAddr: 0xA810, symBinAddr: 0x100011680, symSize: 0x30 }
  - { offsetInCU: 0x18312, offset: 0x3C527, size: 0x8, addend: 0x0, symName: __ZNKSt3__112basic_stringIcNS_11char_traitsIcEENS_9allocatorIcEEE13__get_pointerB8ue170006Ev, symObjAddr: 0xA850, symBinAddr: 0x1000116C0, symSize: 0x50 }
  - { offsetInCU: 0x18338, offset: 0x3C54D, size: 0x8, addend: 0x0, symName: __ZNKSt3__112basic_stringIcNS_11char_traitsIcEENS_9allocatorIcEEE18__get_long_pointerB8ue170006Ev, symObjAddr: 0xA8D0, symBinAddr: 0x100011710, symSize: 0x20 }
  - { offsetInCU: 0x1835E, offset: 0x3C573, size: 0x8, addend: 0x0, symName: __ZNKSt3__112basic_stringIcNS_11char_traitsIcEENS_9allocatorIcEEE19__get_short_pointerB8ue170006Ev, symObjAddr: 0xA8F0, symBinAddr: 0x100011730, symSize: 0x30 }
  - { offsetInCU: 0x18384, offset: 0x3C599, size: 0x8, addend: 0x0, symName: __ZNSt3__114pointer_traitsIPKcE10pointer_toB8ue170006ERS1_, symObjAddr: 0xA950, symBinAddr: 0x100011760, symSize: 0x10 }
  - { offsetInCU: 0x183A7, offset: 0x3C5BC, size: 0x8, addend: 0x0, symName: __ZNSt3__117basic_string_viewIcNS_11char_traitsIcEEEC2B8ue170006EPKcm, symObjAddr: 0xA9B0, symBinAddr: 0x100011770, symSize: 0x30 }
  - { offsetInCU: 0x183EF, offset: 0x3C604, size: 0x8, addend: 0x0, symName: __ZNSt3__117basic_string_viewIcNS_11char_traitsIcEEEC2B8ue170006EPKc, symObjAddr: 0xA9E0, symBinAddr: 0x1000117A0, symSize: 0x40 }
  - { offsetInCU: 0x18428, offset: 0x3C63D, size: 0x8, addend: 0x0, symName: __ZNSt3__113basic_filebufIcNS_11char_traitsIcEEE4openERKNS_12basic_stringIcS2_NS_9allocatorIcEEEEj, symObjAddr: 0xAD30, symBinAddr: 0x100011800, symSize: 0x40 }
  - { offsetInCU: 0x1846C, offset: 0x3C681, size: 0x8, addend: 0x0, symName: __ZNKSt3__112basic_stringIcNS_11char_traitsIcEENS_9allocatorIcEEE5c_strB8ue170006Ev, symObjAddr: 0xAE20, symBinAddr: 0x100011840, symSize: 0x20 }
  - { offsetInCU: 0x184B3, offset: 0x3C6C8, size: 0x8, addend: 0x0, symName: __ZNSt3__115basic_streambufIcNS_11char_traitsIcEEE5sgetcB8ue170006Ev, symObjAddr: 0xB020, symBinAddr: 0x100011860, symSize: 0x50 }
  - { offsetInCU: 0x184DE, offset: 0x3C6F3, size: 0x8, addend: 0x0, symName: __ZNKSt3__15ctypeIcE2isB8ue170006Ejc, symObjAddr: 0xB0A0, symBinAddr: 0x1000118B0, symSize: 0x70 }
  - { offsetInCU: 0x18521, offset: 0x3C736, size: 0x8, addend: 0x0, symName: __Z7isasciii, symObjAddr: 0xB3B0, symBinAddr: 0x100011920, symSize: 0x20 }
  - { offsetInCU: 0x1856F, offset: 0x3C784, size: 0x8, addend: 0x0, symName: __ZNSt3__125uniform_real_distributionIfEC2B8ue170006Eff, symObjAddr: 0xBB40, symBinAddr: 0x100011940, symSize: 0x30 }
  - { offsetInCU: 0x185B5, offset: 0x3C7CA, size: 0x8, addend: 0x0, symName: __ZNSt3__125uniform_real_distributionIfE10param_typeC1B8ue170006Eff, symObjAddr: 0xBB70, symBinAddr: 0x100011970, symSize: 0x30 }
  - { offsetInCU: 0x185FB, offset: 0x3C810, size: 0x8, addend: 0x0, symName: __ZNSt3__125uniform_real_distributionIfE10param_typeC2B8ue170006Eff, symObjAddr: 0xBBA0, symBinAddr: 0x1000119A0, symSize: 0x30 }
  - { offsetInCU: 0x18641, offset: 0x3C856, size: 0x8, addend: 0x0, symName: __ZNSt3__125uniform_real_distributionIfEclINS_13random_deviceEEEfRT_RKNS1_10param_typeE, symObjAddr: 0xBBD0, symBinAddr: 0x1000119D0, symSize: 0x70 }
  - { offsetInCU: 0x1868D, offset: 0x3C8A2, size: 0x8, addend: 0x0, symName: __ZNKSt3__125uniform_real_distributionIfE10param_type1bB8ue170006Ev, symObjAddr: 0xBC40, symBinAddr: 0x100011A40, symSize: 0x20 }
  - { offsetInCU: 0x186B3, offset: 0x3C8C8, size: 0x8, addend: 0x0, symName: __ZNKSt3__125uniform_real_distributionIfE10param_type1aB8ue170006Ev, symObjAddr: 0xBC60, symBinAddr: 0x100011A60, symSize: 0x20 }
  - { offsetInCU: 0x186D9, offset: 0x3C8EE, size: 0x8, addend: 0x0, symName: __ZNSt3__113random_device3maxB8ue170006Ev, symObjAddr: 0xBD80, symBinAddr: 0x100011B80, symSize: 0x10 }
  - { offsetInCU: 0x186ED, offset: 0x3C902, size: 0x8, addend: 0x0, symName: __ZNSt3__113random_device3minB8ue170006Ev, symObjAddr: 0xBD90, symBinAddr: 0x100011B90, symSize: 0x10 }
  - { offsetInCU: 0x18701, offset: 0x3C916, size: 0x8, addend: 0x0, symName: __ZNSt3__113basic_ostreamIcNS_11char_traitsIcEEEC2B8ue170006EPNS_15basic_streambufIcS2_EE, symObjAddr: 0xBDA0, symBinAddr: 0x100011BA0, symSize: 0x47 }
...
