---
triple:          'x86_64-apple-darwin'
binary-path:     iris_train
relocations:
  - { offsetInCU: 0x10D52, offset: 0x10D52, size: 0x8, addend: 0x0, symName: __ZNSt3__17advanceB8ue170006IPNS_6vectorIfNS_9allocatorIfEEEEllvEEvRT_T0_, symObjAddr: 0x4230, symBinAddr: 0x100004AB0, symSize: 0x30 }
  - { offsetInCU: 0x11EDC, offset: 0x11EDC, size: 0x8, addend: 0x0, symName: __ZNSt3__17advanceB8ue170006INS_16reverse_iteratorIPNS_6vectorIfNS_9allocatorIfEEEEEEllvEEvRT_T0_, symObjAddr: 0x5F00, symBinAddr: 0x100006780, symSize: 0x30 }
  - { offsetInCU: 0x12137, offset: 0x12137, size: 0x8, addend: 0x0, symName: __ZNSt3__124__put_character_sequenceB8ue170006IcNS_11char_traitsIcEEEERNS_13basic_ostreamIT_T0_EES7_PKS4_m, symObjAddr: 0x8300, symBinAddr: 0x100008B80, symSize: 0x1F0 }
  - { offsetInCU: 0x13EBE, offset: 0x13EBE, size: 0x8, addend: 0x0, symName: __ZNSt3__1lsB8ue170006INS_11char_traitsIcEEEERNS_13basic_ostreamIcT_EES6_PKc, symObjAddr: 0xDB0, symBinAddr: 0x100001630, symSize: 0x40 }
  - { offsetInCU: 0x13F04, offset: 0x13F04, size: 0x8, addend: 0x0, symName: __ZNSt3__18distanceB8ue170006INS_11__wrap_iterIPfEEEENS_15iterator_traitsIT_E15difference_typeES5_S5_, symObjAddr: 0xF00, symBinAddr: 0x100001780, symSize: 0x40 }
  - { offsetInCU: 0x13F47, offset: 0x13F47, size: 0x8, addend: 0x0, symName: __ZNSt3__111max_elementB8ue170006INS_11__wrap_iterIPfEEEET_S4_S4_, symObjAddr: 0xF70, symBinAddr: 0x1000017F0, symSize: 0x40 }
  - { offsetInCU: 0x13F8A, offset: 0x13F8A, size: 0x8, addend: 0x0, symName: __ZNSt3__14endlB8ue170006IcNS_11char_traitsIcEEEERNS_13basic_ostreamIT_T0_EES7_, symObjAddr: 0x1020, symBinAddr: 0x1000018A0, symSize: 0x50 }
  - { offsetInCU: 0x14DC7, offset: 0x14DC7, size: 0x8, addend: 0x0, symName: __ZNSt3__17getlineB8ue170006IcNS_11char_traitsIcEENS_9allocatorIcEEEERNS_13basic_istreamIT_T0_EES9_RNS_12basic_stringIS6_S7_T1_EE, symObjAddr: 0x1240, symBinAddr: 0x100001AC0, symSize: 0x50 }
  - { offsetInCU: 0x15389, offset: 0x15389, size: 0x8, addend: 0x0, symName: __ZNSt3__17getlineB8ue170006IcNS_11char_traitsIcEENS_9allocatorIcEEEERNS_13basic_istreamIT_T0_EES9_RNS_12basic_stringIS6_S7_T1_EES6_, symObjAddr: 0x1440, symBinAddr: 0x100001CC0, symSize: 0x220 }
  - { offsetInCU: 0x15447, offset: 0x15447, size: 0x8, addend: 0x0, symName: __ZNSt3__1eqB8ue170006IcNS_11char_traitsIcEENS_9allocatorIcEEEEbRKNS_12basic_stringIT_T0_T1_EEPKS6_, symObjAddr: 0x16E0, symBinAddr: 0x100001F60, symSize: 0x60 }
  - { offsetInCU: 0x154B5, offset: 0x154B5, size: 0x8, addend: 0x0, symName: __ZNSt3__18distanceB8ue170006INS_11__wrap_iterIPNS_6vectorIfNS_9allocatorIfEEEEEEEENS_15iterator_traitsIT_E15difference_typeES9_S9_, symObjAddr: 0x1AB0, symBinAddr: 0x100002330, symSize: 0x40 }
  - { offsetInCU: 0x154F8, offset: 0x154F8, size: 0x8, addend: 0x0, symName: __ZNSt3__110__distanceB8ue170006INS_11__wrap_iterIPNS_6vectorIfNS_9allocatorIfEEEEEEEENS_15iterator_traitsIT_E15difference_typeES9_S9_NS_26random_access_iterator_tagE, symObjAddr: 0x1BB0, symBinAddr: 0x100002430, symSize: 0x30 }
  - { offsetInCU: 0x15545, offset: 0x15545, size: 0x8, addend: 0x0, symName: __ZNSt3__1miB8ue170006IPNS_6vectorIfNS_9allocatorIfEEEES5_EEDTmicldtfp_4baseEcldtfp0_4baseEERKNS_11__wrap_iterIT_EERKNS7_IT0_EE, symObjAddr: 0x1BE0, symBinAddr: 0x100002460, symSize: 0x40 }
  - { offsetInCU: 0x15591, offset: 0x15591, size: 0x8, addend: 0x0, symName: __ZNSt3__122__make_exception_guardB8ue170006INS_6vectorINS1_IfNS_9allocatorIfEEEENS2_IS4_EEE16__destroy_vectorEEENS_28__exception_guard_exceptionsIT_EES9_, symObjAddr: 0x1C40, symBinAddr: 0x1000024C0, symSize: 0x40 }
  - { offsetInCU: 0x155C6, offset: 0x155C6, size: 0x8, addend: 0x0, symName: __ZNSt3__119__allocate_at_leastB8ue170006INS_9allocatorINS_6vectorIfNS1_IfEEEEEEEEDaRT_m, symObjAddr: 0x1F20, symBinAddr: 0x1000027A0, symSize: 0x40 }
  - { offsetInCU: 0x15609, offset: 0x15609, size: 0x8, addend: 0x0, symName: __ZNSt3__13minB8ue170006ImEERKT_S3_S3_, symObjAddr: 0x2040, symBinAddr: 0x1000028C0, symSize: 0x30 }
  - { offsetInCU: 0x15836, offset: 0x15836, size: 0x8, addend: 0x0, symName: __ZNSt3__13minB8ue170006ImNS_6__lessIvvEEEERKT_S5_S5_T0_, symObjAddr: 0x20D0, symBinAddr: 0x100002950, symSize: 0x50 }
  - { offsetInCU: 0x15AF2, offset: 0x15AF2, size: 0x8, addend: 0x0, symName: __ZNSt3__120__throw_length_errorB8ue170006EPKc, symObjAddr: 0x21B0, symBinAddr: 0x100002A30, symSize: 0x70 }
  - { offsetInCU: 0x15B1C, offset: 0x15B1C, size: 0x8, addend: 0x0, symName: __ZNSt3__117allocate_at_leastB8ue170006INS_9allocatorINS_6vectorIfNS1_IfEEEEEEEENS_17allocation_resultINS_16allocator_traitsIT_E7pointerEEERS8_m, symObjAddr: 0x2290, symBinAddr: 0x100002B10, symSize: 0x40 }
  - { offsetInCU: 0x15B5F, offset: 0x15B5F, size: 0x8, addend: 0x0, symName: __ZNSt3__117__libcpp_allocateB8ue170006Emm, symObjAddr: 0x23A0, symBinAddr: 0x100002C20, symSize: 0x60 }
  - { offsetInCU: 0x15BB9, offset: 0x15BB9, size: 0x8, addend: 0x0, symName: __ZNSt3__124__is_overaligned_for_newB8ue170006Em, symObjAddr: 0x2400, symBinAddr: 0x100002C80, symSize: 0x20 }
  - { offsetInCU: 0x15BE7, offset: 0x15BE7, size: 0x8, addend: 0x0, symName: __ZNSt3__121__libcpp_operator_newB8ue170006IJmSt11align_val_tEEEPvDpT_, symObjAddr: 0x2420, symBinAddr: 0x100002CA0, symSize: 0x30 }
  - { offsetInCU: 0x15C34, offset: 0x15C34, size: 0x8, addend: 0x0, symName: __ZNSt3__121__libcpp_operator_newB8ue170006IJmEEEPvDpT_, symObjAddr: 0x2450, symBinAddr: 0x100002CD0, symSize: 0x20 }
  - { offsetInCU: 0x15C6D, offset: 0x15C6D, size: 0x8, addend: 0x0, symName: __ZNSt3__112__to_addressB8ue170006INS_6vectorIfNS_9allocatorIfEEEEEEPT_S6_, symObjAddr: 0x2550, symBinAddr: 0x100002DD0, symSize: 0x10 }
  - { offsetInCU: 0x15CA2, offset: 0x15CA2, size: 0x8, addend: 0x0, symName: __ZNSt3__130__uninitialized_allocator_copyB8ue170006INS_9allocatorINS_6vectorIfNS1_IfEEEEEENS_11__wrap_iterIPS4_EES8_S7_EET2_RT_T0_T1_S9_, symObjAddr: 0x25E0, symBinAddr: 0x100002E60, symSize: 0x90 }
  - { offsetInCU: 0x15D40, offset: 0x15D40, size: 0x8, addend: 0x0, symName: __ZNSt3__114__unwrap_rangeB8ue170006INS_11__wrap_iterIPNS_6vectorIfNS_9allocatorIfEEEEEES7_EEDaT_T0_, symObjAddr: 0x26D0, symBinAddr: 0x100002F50, symSize: 0x50 }
  - { offsetInCU: 0x15D8C, offset: 0x15D8C, size: 0x8, addend: 0x0, symName: __ZNSt3__135__uninitialized_allocator_copy_implB8ue170006INS_9allocatorINS_6vectorIfNS1_IfEEEEEEPS4_S6_S6_EET2_RT_T0_T1_S7_, symObjAddr: 0x2720, symBinAddr: 0x100002FA0, symSize: 0x100 }
  - { offsetInCU: 0x15E2A, offset: 0x15E2A, size: 0x8, addend: 0x0, symName: __ZNSt3__113__unwrap_iterB8ue170006IPNS_6vectorIfNS_9allocatorIfEEEENS_18__unwrap_iter_implIS5_Lb1EEELi0EEEDTclsrT0_8__unwrapclsr3stdE7declvalIT_EEEES9_, symObjAddr: 0x2820, symBinAddr: 0x1000030A0, symSize: 0x20 }
  - { offsetInCU: 0x15E6E, offset: 0x15E6E, size: 0x8, addend: 0x0, symName: __ZNSt3__113__rewrap_iterB8ue170006IPNS_6vectorIfNS_9allocatorIfEEEES5_NS_18__unwrap_iter_implIS5_Lb1EEEEET_S8_T0_, symObjAddr: 0x2840, symBinAddr: 0x1000030C0, symSize: 0x40 }
  - { offsetInCU: 0x16012, offset: 0x16012, size: 0x8, addend: 0x0, symName: __ZNSt3__113__unwrap_iterB8ue170006INS_11__wrap_iterIPNS_6vectorIfNS_9allocatorIfEEEEEENS_18__unwrap_iter_implIS7_Lb1EEELi0EEEDTclsrT0_8__unwrapclsr3stdE7declvalIT_EEEESB_, symObjAddr: 0x28E0, symBinAddr: 0x100003160, symSize: 0x30 }
  - { offsetInCU: 0x160A9, offset: 0x160A9, size: 0x8, addend: 0x0, symName: __ZNSt3__112__to_addressB8ue170006INS_11__wrap_iterIPNS_6vectorIfNS_9allocatorIfEEEEEEvEEu7__decayIDTclsr19__to_address_helperIT_EE6__callclsr3stdE7declvalIRKS8_EEEEESA_, symObjAddr: 0x2960, symBinAddr: 0x1000031E0, symSize: 0x20 }
  - { offsetInCU: 0x16146, offset: 0x16146, size: 0x8, addend: 0x0, symName: __ZNSt3__122__make_exception_guardB8ue170006INS_29_AllocatorDestroyRangeReverseINS_9allocatorINS_6vectorIfNS2_IfEEEEEEPS5_EEEENS_28__exception_guard_exceptionsIT_EESA_, symObjAddr: 0x2A10, symBinAddr: 0x100003290, symSize: 0x60 }
  - { offsetInCU: 0x161A0, offset: 0x161A0, size: 0x8, addend: 0x0, symName: __ZNSt3__112construct_atB8ue170006INS_6vectorIfNS_9allocatorIfEEEEJRS4_EPS4_EEPT_S8_DpOT0_, symObjAddr: 0x2BD0, symBinAddr: 0x100003450, symSize: 0x40 }
  - { offsetInCU: 0x16210, offset: 0x16210, size: 0x8, addend: 0x0, symName: __ZNSt3__122__make_exception_guardB8ue170006INS_6vectorIfNS_9allocatorIfEEE16__destroy_vectorEEENS_28__exception_guard_exceptionsIT_EES7_, symObjAddr: 0x2EB0, symBinAddr: 0x100003730, symSize: 0x40 }
  - { offsetInCU: 0x16245, offset: 0x16245, size: 0x8, addend: 0x0, symName: __ZNSt3__119__allocate_at_leastB8ue170006INS_9allocatorIfEEEEDaRT_m, symObjAddr: 0x3180, symBinAddr: 0x100003A00, symSize: 0x40 }
  - { offsetInCU: 0x16288, offset: 0x16288, size: 0x8, addend: 0x0, symName: __ZNSt3__117allocate_at_leastB8ue170006INS_9allocatorIfEEEENS_17allocation_resultINS_16allocator_traitsIT_E7pointerEEERS5_m, symObjAddr: 0x32D0, symBinAddr: 0x100003B50, symSize: 0x40 }
  - { offsetInCU: 0x162CB, offset: 0x162CB, size: 0x8, addend: 0x0, symName: __ZNSt3__112__to_addressB8ue170006IfEEPT_S2_, symObjAddr: 0x3470, symBinAddr: 0x100003CF0, symSize: 0x10 }
  - { offsetInCU: 0x16300, offset: 0x16300, size: 0x8, addend: 0x0, symName: __ZNSt3__130__uninitialized_allocator_copyB8ue170006INS_9allocatorIfEEPfS3_S3_EET2_RT_T0_T1_S4_, symObjAddr: 0x3500, symBinAddr: 0x100003D80, symSize: 0x80 }
  - { offsetInCU: 0x1639D, offset: 0x1639D, size: 0x8, addend: 0x0, symName: __ZNSt3__114__unwrap_rangeB8ue170006IPfS1_EEDaT_T0_, symObjAddr: 0x35E0, symBinAddr: 0x100003E60, symSize: 0x40 }
  - { offsetInCU: 0x163E9, offset: 0x163E9, size: 0x8, addend: 0x0, symName: __ZNSt3__135__uninitialized_allocator_copy_implB8ue170006INS_9allocatorIfEEfffLPv0EEEPT2_RT_PT0_S9_S5_, symObjAddr: 0x3620, symBinAddr: 0x100003EA0, symSize: 0x30 }
  - { offsetInCU: 0x1646A, offset: 0x1646A, size: 0x8, addend: 0x0, symName: __ZNSt3__113__unwrap_iterB8ue170006IPfNS_18__unwrap_iter_implIS1_Lb1EEELi0EEEDTclsrT0_8__unwrapclsr3stdE7declvalIT_EEEES5_, symObjAddr: 0x3650, symBinAddr: 0x100003ED0, symSize: 0x20 }
  - { offsetInCU: 0x164AE, offset: 0x164AE, size: 0x8, addend: 0x0, symName: __ZNSt3__113__rewrap_iterB8ue170006IPfS1_NS_18__unwrap_iter_implIS1_Lb1EEEEET_S4_T0_, symObjAddr: 0x3670, symBinAddr: 0x100003EF0, symSize: 0x40 }
  - { offsetInCU: 0x1669B, offset: 0x1669B, size: 0x8, addend: 0x0, symName: __ZNSt3__14copyB8ue170006IPfS1_EET0_T_S3_S2_, symObjAddr: 0x3760, symBinAddr: 0x100003FE0, symSize: 0x40 }
  - { offsetInCU: 0x166F5, offset: 0x166F5, size: 0x8, addend: 0x0, symName: __ZNSt3__16__copyB8ue170006INS_17_ClassicAlgPolicyEPfS2_S2_EENS_4pairIT0_T2_EES4_T1_S5_, symObjAddr: 0x37A0, symBinAddr: 0x100004020, symSize: 0x40 }
  - { offsetInCU: 0x16761, offset: 0x16761, size: 0x8, addend: 0x0, symName: __ZNSt3__123__dispatch_copy_or_moveB8ue170006INS_17_ClassicAlgPolicyENS_11__copy_loopIS1_EENS_14__copy_trivialEPfS5_S5_EENS_4pairIT2_T4_EES7_T3_S8_, symObjAddr: 0x37E0, symBinAddr: 0x100004060, symSize: 0x40 }
  - { offsetInCU: 0x167DF, offset: 0x167DF, size: 0x8, addend: 0x0, symName: __ZNSt3__121__unwrap_and_dispatchB8ue170006INS_10__overloadINS_11__copy_loopINS_17_ClassicAlgPolicyEEENS_14__copy_trivialEEEPfS7_S7_Li0EEENS_4pairIT0_T2_EES9_T1_SA_, symObjAddr: 0x3820, symBinAddr: 0x1000040A0, symSize: 0xB0 }
  - { offsetInCU: 0x168F0, offset: 0x168F0, size: 0x8, addend: 0x0, symName: __ZNSt3__19make_pairB8ue170006IPfS1_EENS_4pairINS_18__unwrap_ref_decayIT_E4typeENS3_IT0_E4typeEEEOS4_OS7_, symObjAddr: 0x3910, symBinAddr: 0x100004190, symSize: 0x30 }
  - { offsetInCU: 0x1693F, offset: 0x1693F, size: 0x8, addend: 0x0, symName: __ZNSt3__114__rewrap_rangeB8ue170006IPfS1_S1_EET0_S2_T1_, symObjAddr: 0x3940, symBinAddr: 0x1000041C0, symSize: 0x30 }
  - { offsetInCU: 0x16994, offset: 0x16994, size: 0x8, addend: 0x0, symName: __ZNSt3__119__copy_trivial_implB8ue170006IffEENS_4pairIPT_PT0_EES3_S3_S5_, symObjAddr: 0x3970, symBinAddr: 0x1000041F0, symSize: 0x70 }
  - { offsetInCU: 0x169FC, offset: 0x169FC, size: 0x8, addend: 0x0, symName: __ZNSt3__119__constexpr_memmoveB8ue170006IffLi0EEEPT_S2_PT0_NS_15__element_countE, symObjAddr: 0x39E0, symBinAddr: 0x100004260, symSize: 0x50 }
  - { offsetInCU: 0x16A6A, offset: 0x16A6A, size: 0x8, addend: 0x0, symName: __ZNSt3__19make_pairB8ue170006IRPfS1_EENS_4pairINS_18__unwrap_ref_decayIT_E4typeENS4_IT0_E4typeEEEOS5_OS8_, symObjAddr: 0x3A30, symBinAddr: 0x1000042B0, symSize: 0x30 }
  - { offsetInCU: 0x16B0C, offset: 0x16B0C, size: 0x8, addend: 0x0, symName: __ZNSt3__110destroy_atB8ue170006IfLi0EEEvPT_, symObjAddr: 0x3DE0, symBinAddr: 0x100004660, symSize: 0x20 }
  - { offsetInCU: 0x16B43, offset: 0x16B43, size: 0x8, addend: 0x0, symName: __ZNSt3__112__destroy_atB8ue170006IfLi0EEEvPT_, symObjAddr: 0x3E00, symBinAddr: 0x100004680, symSize: 0x10 }
  - { offsetInCU: 0x16B7A, offset: 0x16B7A, size: 0x8, addend: 0x0, symName: __ZNSt3__119__libcpp_deallocateB8ue170006EPvmm, symObjAddr: 0x3E50, symBinAddr: 0x1000046D0, symSize: 0x60 }
  - { offsetInCU: 0x16BDF, offset: 0x16BDF, size: 0x8, addend: 0x0, symName: __ZNSt3__127__do_deallocate_handle_sizeB8ue170006IJSt11align_val_tEEEvPvmDpT_, symObjAddr: 0x3EB0, symBinAddr: 0x100004730, symSize: 0x30 }
  - { offsetInCU: 0x16C32, offset: 0x16C32, size: 0x8, addend: 0x0, symName: __ZNSt3__127__do_deallocate_handle_sizeB8ue170006IJEEEvPvmDpT_, symObjAddr: 0x3EE0, symBinAddr: 0x100004760, symSize: 0x20 }
  - { offsetInCU: 0x16C70, offset: 0x16C70, size: 0x8, addend: 0x0, symName: __ZNSt3__124__libcpp_operator_deleteB8ue170006IJPvSt11align_val_tEEEvDpT_, symObjAddr: 0x3F00, symBinAddr: 0x100004780, symSize: 0x30 }
  - { offsetInCU: 0x16CB9, offset: 0x16CB9, size: 0x8, addend: 0x0, symName: __ZNSt3__124__libcpp_operator_deleteB8ue170006IJPvEEEvDpT_, symObjAddr: 0x3F30, symBinAddr: 0x1000047B0, symSize: 0x20 }
  - { offsetInCU: 0x16CEE, offset: 0x16CEE, size: 0x8, addend: 0x0, symName: __ZNSt3__119__allocator_destroyB8ue170006INS_9allocatorINS_6vectorIfNS1_IfEEEEEENS_16reverse_iteratorIPS4_EES8_EEvRT_T0_T1_, symObjAddr: 0x3FF0, symBinAddr: 0x100004870, symSize: 0x70 }
  - { offsetInCU: 0x16D51, offset: 0x16D51, size: 0x8, addend: 0x0, symName: __ZNSt3__1neB8ue170006IPNS_6vectorIfNS_9allocatorIfEEEES5_EEbRKNS_16reverse_iteratorIT_EERKNS6_IT0_EE, symObjAddr: 0x4090, symBinAddr: 0x100004910, symSize: 0x40 }
  - { offsetInCU: 0x16D9D, offset: 0x16D9D, size: 0x8, addend: 0x0, symName: __ZNSt3__112__to_addressB8ue170006INS_16reverse_iteratorIPNS_6vectorIfNS_9allocatorIfEEEEEEvEEu7__decayIDTclsr19__to_address_helperIT_EE6__callclsr3stdE7declvalIRKS8_EEEEESA_, symObjAddr: 0x40F0, symBinAddr: 0x100004970, symSize: 0x20 }
  - { offsetInCU: 0x16DD3, offset: 0x16DD3, size: 0x8, addend: 0x0, symName: __ZNSt3__110destroy_atB8ue170006INS_6vectorIfNS_9allocatorIfEEEELi0EEEvPT_, symObjAddr: 0x4150, symBinAddr: 0x1000049D0, symSize: 0x20 }
  - { offsetInCU: 0x16E0A, offset: 0x16E0A, size: 0x8, addend: 0x0, symName: __ZNSt3__112__destroy_atB8ue170006INS_6vectorIfNS_9allocatorIfEEEELi0EEEvPT_, symObjAddr: 0x4170, symBinAddr: 0x1000049F0, symSize: 0x20 }
  - { offsetInCU: 0x16E6A, offset: 0x16E6A, size: 0x8, addend: 0x0, symName: __ZNSt3__14prevB8ue170006IPNS_6vectorIfNS_9allocatorIfEEEEEENS_9enable_ifIXsr29__has_input_iterator_categoryIT_EE5valueES7_E4typeES7_NS_15iterator_traitsIS7_E15difference_typeE, symObjAddr: 0x4200, symBinAddr: 0x100004A80, symSize: 0x30 }
  - { offsetInCU: 0x16EAD, offset: 0x16EAD, size: 0x8, addend: 0x0, symName: __ZNSt3__121__convert_to_integralB8ue170006El, symObjAddr: 0x4260, symBinAddr: 0x100004AE0, symSize: 0x10 }
  - { offsetInCU: 0x16ED9, offset: 0x16ED9, size: 0x8, addend: 0x0, symName: __ZNSt3__19__advanceB8ue170006IPNS_6vectorIfNS_9allocatorIfEEEEEEvRT_NS_15iterator_traitsIS6_E15difference_typeENS_26random_access_iterator_tagE, symObjAddr: 0x4270, symBinAddr: 0x100004AF0, symSize: 0x20 }
  - { offsetInCU: 0x16F75, offset: 0x16F75, size: 0x8, addend: 0x0, symName: __ZNSt3__110__distanceB8ue170006INS_11__wrap_iterIPfEEEENS_15iterator_traitsIT_E15difference_typeES5_S5_NS_26random_access_iterator_tagE, symObjAddr: 0x4630, symBinAddr: 0x100004EB0, symSize: 0x30 }
  - { offsetInCU: 0x16FC2, offset: 0x16FC2, size: 0x8, addend: 0x0, symName: __ZNSt3__1miB8ue170006IPfS1_EEDTmicldtfp_4baseEcldtfp0_4baseEERKNS_11__wrap_iterIT_EERKNS3_IT0_EE, symObjAddr: 0x4660, symBinAddr: 0x100004EE0, symSize: 0x40 }
  - { offsetInCU: 0x1700E, offset: 0x1700E, size: 0x8, addend: 0x0, symName: __ZNSt3__111max_elementB8ue170006INS_11__wrap_iterIPfEENS_6__lessIvvEEEET_S6_S6_T0_, symObjAddr: 0x4740, symBinAddr: 0x100004FC0, symSize: 0x40 }
  - { offsetInCU: 0x17068, offset: 0x17068, size: 0x8, addend: 0x0, symName: __ZNSt3__113__max_elementB8ue170006IRNS_6__lessIvvEENS_11__wrap_iterIPfEEEET0_S7_S7_T_, symObjAddr: 0x4780, symBinAddr: 0x100005000, symSize: 0xC0 }
  - { offsetInCU: 0x170DE, offset: 0x170DE, size: 0x8, addend: 0x0, symName: __ZNSt3__1neB8ue170006IPfEEbRKNS_11__wrap_iterIT_EES6_, symObjAddr: 0x4840, symBinAddr: 0x1000050C0, symSize: 0x30 }
  - { offsetInCU: 0x17121, offset: 0x17121, size: 0x8, addend: 0x0, symName: __ZNSt3__1eqB8ue170006IPfEEbRKNS_11__wrap_iterIT_EES6_, symObjAddr: 0x48E0, symBinAddr: 0x100005160, symSize: 0x40 }
  - { offsetInCU: 0x17164, offset: 0x17164, size: 0x8, addend: 0x0, symName: __ZNSt3__118__constexpr_strlenB8ue170006EPKc, symObjAddr: 0x4AA0, symBinAddr: 0x100005320, symSize: 0x20 }
  - { offsetInCU: 0x17190, offset: 0x17190, size: 0x8, addend: 0x0, symName: __ZNSt3__112__to_addressB8ue170006INS_6vectorINS1_IfNS_9allocatorIfEEEENS2_IS4_EEEEEEPT_S8_, symObjAddr: 0x4E60, symBinAddr: 0x1000056E0, symSize: 0x10 }
  - { offsetInCU: 0x171C5, offset: 0x171C5, size: 0x8, addend: 0x0, symName: __ZNSt3__110destroy_atB8ue170006INS_6vectorINS1_IfNS_9allocatorIfEEEENS2_IS4_EEEELi0EEEvPT_, symObjAddr: 0x4E70, symBinAddr: 0x1000056F0, symSize: 0x20 }
  - { offsetInCU: 0x171FC, offset: 0x171FC, size: 0x8, addend: 0x0, symName: __ZNSt3__112__destroy_atB8ue170006INS_6vectorINS1_IfNS_9allocatorIfEEEENS2_IS4_EEEELi0EEEvPT_, symObjAddr: 0x4E90, symBinAddr: 0x100005710, symSize: 0x20 }
  - { offsetInCU: 0x17233, offset: 0x17233, size: 0x8, addend: 0x0, symName: __ZNSt3__112construct_atB8ue170006INS_6vectorIfNS_9allocatorIfEEEEJS4_EPS4_EEPT_S7_DpOT0_, symObjAddr: 0x5250, symBinAddr: 0x100005AD0, symSize: 0x40 }
  - { offsetInCU: 0x172A3, offset: 0x172A3, size: 0x8, addend: 0x0, symName: __ZNSt3__13maxB8ue170006ImEERKT_S3_S3_, symObjAddr: 0x55B0, symBinAddr: 0x100005E30, symSize: 0x30 }
  - { offsetInCU: 0x172E6, offset: 0x172E6, size: 0x8, addend: 0x0, symName: __ZNSt3__13maxB8ue170006ImNS_6__lessIvvEEEERKT_S5_S5_T0_, symObjAddr: 0x55E0, symBinAddr: 0x100005E60, symSize: 0x50 }
  - { offsetInCU: 0x17340, offset: 0x17340, size: 0x8, addend: 0x0, symName: __ZNSt3__142__uninitialized_allocator_move_if_noexceptB8ue170006INS_9allocatorINS_6vectorIfNS1_IfEEEEEENS_16reverse_iteratorIPS4_EES8_S8_EET2_RT_T0_T1_S9_, symObjAddr: 0x5820, symBinAddr: 0x1000060A0, symSize: 0x180 }
  - { offsetInCU: 0x173DF, offset: 0x173DF, size: 0x8, addend: 0x0, symName: __ZNSt3__14swapB8ue170006IPNS_6vectorIfNS_9allocatorIfEEEEEENS_9enable_ifIXaasr21is_move_constructibleIT_EE5valuesr18is_move_assignableIS7_EE5valueEvE4typeERS7_SA_, symObjAddr: 0x59A0, symBinAddr: 0x100006220, symSize: 0x40 }
  - { offsetInCU: 0x17430, offset: 0x17430, size: 0x8, addend: 0x0, symName: __ZNSt3__122__make_exception_guardB8ue170006INS_29_AllocatorDestroyRangeReverseINS_9allocatorINS_6vectorIfNS2_IfEEEEEENS_16reverse_iteratorIPS5_EEEEEENS_28__exception_guard_exceptionsIT_EESC_, symObjAddr: 0x59E0, symBinAddr: 0x100006260, symSize: 0x60 }
  - { offsetInCU: 0x17465, offset: 0x17465, size: 0x8, addend: 0x0, symName: __ZNSt3__119__allocator_destroyB8ue170006INS_9allocatorINS_6vectorIfNS1_IfEEEEEENS_16reverse_iteratorINS6_IPS4_EEEES9_EEvRT_T0_T1_, symObjAddr: 0x5CD0, symBinAddr: 0x100006550, symSize: 0x70 }
  - { offsetInCU: 0x174C8, offset: 0x174C8, size: 0x8, addend: 0x0, symName: __ZNSt3__1neB8ue170006INS_16reverse_iteratorIPNS_6vectorIfNS_9allocatorIfEEEEEES7_EEbRKNS1_IT_EERKNS1_IT0_EE, symObjAddr: 0x5D70, symBinAddr: 0x1000065F0, symSize: 0x50 }
  - { offsetInCU: 0x17514, offset: 0x17514, size: 0x8, addend: 0x0, symName: __ZNSt3__112__to_addressB8ue170006INS_16reverse_iteratorINS1_IPNS_6vectorIfNS_9allocatorIfEEEEEEEEvEEu7__decayIDTclsr19__to_address_helperIT_EE6__callclsr3stdE7declvalIRKS9_EEEEESB_, symObjAddr: 0x5DC0, symBinAddr: 0x100006640, symSize: 0x20 }
  - { offsetInCU: 0x17573, offset: 0x17573, size: 0x8, addend: 0x0, symName: __ZNSt3__14prevB8ue170006INS_16reverse_iteratorIPNS_6vectorIfNS_9allocatorIfEEEEEEEENS_9enable_ifIXsr29__has_input_iterator_categoryIT_EE5valueES9_E4typeES9_NS_15iterator_traitsIS9_E15difference_typeE, symObjAddr: 0x5EC0, symBinAddr: 0x100006740, symSize: 0x40 }
  - { offsetInCU: 0x175B6, offset: 0x175B6, size: 0x8, addend: 0x0, symName: __ZNSt3__19__advanceB8ue170006INS_16reverse_iteratorIPNS_6vectorIfNS_9allocatorIfEEEEEEEEvRT_NS_15iterator_traitsIS8_E15difference_typeENS_26random_access_iterator_tagE, symObjAddr: 0x5F30, symBinAddr: 0x1000067B0, symSize: 0x30 }
  - { offsetInCU: 0x17624, offset: 0x17624, size: 0x8, addend: 0x0, symName: __ZNSt3__112construct_atB8ue170006IfJfEPfEEPT_S3_DpOT0_, symObjAddr: 0x6550, symBinAddr: 0x100006DD0, symSize: 0x30 }
  - { offsetInCU: 0x17694, offset: 0x17694, size: 0x8, addend: 0x0, symName: __ZNSt3__142__uninitialized_allocator_move_if_noexceptB8ue170006INS_9allocatorIfEENS_16reverse_iteratorIPfEES5_fvEET1_RT_T0_S9_S6_, symObjAddr: 0x69A0, symBinAddr: 0x100007220, symSize: 0x70 }
  - { offsetInCU: 0x17710, offset: 0x17710, size: 0x8, addend: 0x0, symName: __ZNSt3__14swapB8ue170006IPfEENS_9enable_ifIXaasr21is_move_constructibleIT_EE5valuesr18is_move_assignableIS3_EE5valueEvE4typeERS3_S6_, symObjAddr: 0x6A60, symBinAddr: 0x1000072E0, symSize: 0x40 }
  - { offsetInCU: 0x17761, offset: 0x17761, size: 0x8, addend: 0x0, symName: __ZNSt3__14moveB8ue170006INS_16reverse_iteratorIPfEES3_EET0_T_S5_S4_, symObjAddr: 0x6AA0, symBinAddr: 0x100007320, symSize: 0x80 }
  - { offsetInCU: 0x177BB, offset: 0x177BB, size: 0x8, addend: 0x0, symName: __ZNSt3__16__moveB8ue170006INS_17_ClassicAlgPolicyENS_16reverse_iteratorIPfEES4_S4_EENS_4pairIT0_T2_EES6_T1_S7_, symObjAddr: 0x6B20, symBinAddr: 0x1000073A0, symSize: 0x90 }
  - { offsetInCU: 0x17827, offset: 0x17827, size: 0x8, addend: 0x0, symName: __ZNSt3__123__dispatch_copy_or_moveB8ue170006INS_17_ClassicAlgPolicyENS_11__move_loopIS1_EENS_14__move_trivialENS_16reverse_iteratorIPfEES7_S7_EENS_4pairIT2_T4_EES9_T3_SA_, symObjAddr: 0x6BB0, symBinAddr: 0x100007430, symSize: 0x90 }
  - { offsetInCU: 0x178A5, offset: 0x178A5, size: 0x8, addend: 0x0, symName: __ZNSt3__121__unwrap_and_dispatchB8ue170006INS_10__overloadINS_11__move_loopINS_17_ClassicAlgPolicyEEENS_14__move_trivialEEENS_16reverse_iteratorIPfEES9_S9_Li0EEENS_4pairIT0_T2_EESB_T1_SC_, symObjAddr: 0x6C40, symBinAddr: 0x1000074C0, symSize: 0x210 }
  - { offsetInCU: 0x17934, offset: 0x17934, size: 0x8, addend: 0x0, symName: __ZNSt3__114__unwrap_rangeB8ue170006INS_16reverse_iteratorIPfEES3_EEDaT_T0_, symObjAddr: 0x6E50, symBinAddr: 0x1000076D0, symSize: 0x60 }
  - { offsetInCU: 0x17AFC, offset: 0x17AFC, size: 0x8, addend: 0x0, symName: __ZNSt3__113__unwrap_iterB8ue170006INS_16reverse_iteratorIPfEENS_18__unwrap_iter_implIS3_Lb0EEELi0EEEDTclsrT0_8__unwrapclsr3stdE7declvalIT_EEEES7_, symObjAddr: 0x6F50, symBinAddr: 0x1000077D0, symSize: 0x40 }
  - { offsetInCU: 0x17B40, offset: 0x17B40, size: 0x8, addend: 0x0, symName: __ZNSt3__19make_pairB8ue170006INS_16reverse_iteratorIPfEES3_EENS_4pairINS_18__unwrap_ref_decayIT_E4typeENS5_IT0_E4typeEEEOS6_OS9_, symObjAddr: 0x6F90, symBinAddr: 0x100007810, symSize: 0x30 }
  - { offsetInCU: 0x17B8F, offset: 0x17B8F, size: 0x8, addend: 0x0, symName: __ZNSt3__114__rewrap_rangeB8ue170006INS_16reverse_iteratorIPfEES3_S3_EET0_S4_T1_, symObjAddr: 0x6FC0, symBinAddr: 0x100007840, symSize: 0x60 }
  - { offsetInCU: 0x17BE4, offset: 0x17BE4, size: 0x8, addend: 0x0, symName: __ZNSt3__113__rewrap_iterB8ue170006INS_16reverse_iteratorIPfEES3_NS_18__unwrap_iter_implIS3_Lb0EEEEET_S6_T0_, symObjAddr: 0x7020, symBinAddr: 0x1000078A0, symSize: 0x70 }
  - { offsetInCU: 0x17C89, offset: 0x17C89, size: 0x8, addend: 0x0, symName: __ZNSt3__1neB8ue170006IPfS1_EEbRKNS_16reverse_iteratorIT_EERKNS2_IT0_EE, symObjAddr: 0x7190, symBinAddr: 0x100007A10, symSize: 0x40 }
  - { offsetInCU: 0x17D87, offset: 0x17D87, size: 0x8, addend: 0x0, symName: __ZNSt3__1eqB8ue170006IcNS_11char_traitsIcEEEEbNS_17basic_string_viewIT_T0_EES6_, symObjAddr: 0x74E0, symBinAddr: 0x100007D60, symSize: 0x90 }
  - { offsetInCU: 0x17DD6, offset: 0x17DD6, size: 0x8, addend: 0x0, symName: __ZNSt3__112__to_addressB8ue170006IKcEEPT_S3_, symObjAddr: 0x77C0, symBinAddr: 0x100008040, symSize: 0x10 }
  - { offsetInCU: 0x17E3E, offset: 0x17E3E, size: 0x8, addend: 0x0, symName: __ZNSt3__128__char_traits_length_checkedB8ue170006INS_11char_traitsIcEEEEmPKNT_9char_typeE, symObjAddr: 0x78F0, symBinAddr: 0x100008170, symSize: 0x20 }
  - { offsetInCU: 0x17E75, offset: 0x17E75, size: 0x8, addend: 0x0, symName: __ZNSt3__130__uninitialized_allocator_copyB8ue170006INS_9allocatorIfEEPKfS4_PfEET2_RT_T0_T1_S6_, symObjAddr: 0x7B10, symBinAddr: 0x100008390, symSize: 0x80 }
  - { offsetInCU: 0x17F12, offset: 0x17F12, size: 0x8, addend: 0x0, symName: __ZNSt3__114__unwrap_rangeB8ue170006IPKfS2_EEDaT_T0_, symObjAddr: 0x7B90, symBinAddr: 0x100008410, symSize: 0x40 }
  - { offsetInCU: 0x17F5E, offset: 0x17F5E, size: 0x8, addend: 0x0, symName: __ZNSt3__135__uninitialized_allocator_copy_implB8ue170006INS_9allocatorIfEEKfffLPv0EEEPT2_RT_PT0_SA_S6_, symObjAddr: 0x7BD0, symBinAddr: 0x100008450, symSize: 0x30 }
  - { offsetInCU: 0x18148, offset: 0x18148, size: 0x8, addend: 0x0, symName: __ZNSt3__113__unwrap_iterB8ue170006IPKfNS_18__unwrap_iter_implIS2_Lb1EEELi0EEEDTclsrT0_8__unwrapclsr3stdE7declvalIT_EEEES6_, symObjAddr: 0x7C50, symBinAddr: 0x1000084D0, symSize: 0x20 }
  - { offsetInCU: 0x181DF, offset: 0x181DF, size: 0x8, addend: 0x0, symName: __ZNSt3__112__to_addressB8ue170006IKfEEPT_S3_, symObjAddr: 0x7CC0, symBinAddr: 0x100008540, symSize: 0x10 }
  - { offsetInCU: 0x18214, offset: 0x18214, size: 0x8, addend: 0x0, symName: __ZNSt3__14copyB8ue170006IPKfPfEET0_T_S5_S4_, symObjAddr: 0x7D00, symBinAddr: 0x100008580, symSize: 0x40 }
  - { offsetInCU: 0x1826E, offset: 0x1826E, size: 0x8, addend: 0x0, symName: __ZNSt3__16__copyB8ue170006INS_17_ClassicAlgPolicyEPKfS3_PfEENS_4pairIT0_T2_EES6_T1_S7_, symObjAddr: 0x7D40, symBinAddr: 0x1000085C0, symSize: 0x40 }
  - { offsetInCU: 0x182DA, offset: 0x182DA, size: 0x8, addend: 0x0, symName: __ZNSt3__123__dispatch_copy_or_moveB8ue170006INS_17_ClassicAlgPolicyENS_11__copy_loopIS1_EENS_14__copy_trivialEPKfS6_PfEENS_4pairIT2_T4_EES9_T3_SA_, symObjAddr: 0x7D80, symBinAddr: 0x100008600, symSize: 0x40 }
  - { offsetInCU: 0x18358, offset: 0x18358, size: 0x8, addend: 0x0, symName: __ZNSt3__121__unwrap_and_dispatchB8ue170006INS_10__overloadINS_11__copy_loopINS_17_ClassicAlgPolicyEEENS_14__copy_trivialEEEPKfS8_PfLi0EEENS_4pairIT0_T2_EESB_T1_SC_, symObjAddr: 0x7DC0, symBinAddr: 0x100008640, symSize: 0xB0 }
  - { offsetInCU: 0x18537, offset: 0x18537, size: 0x8, addend: 0x0, symName: __ZNSt3__19make_pairB8ue170006IPKfPfEENS_4pairINS_18__unwrap_ref_decayIT_E4typeENS5_IT0_E4typeEEEOS6_OS9_, symObjAddr: 0x7EB0, symBinAddr: 0x100008730, symSize: 0x30 }
  - { offsetInCU: 0x18586, offset: 0x18586, size: 0x8, addend: 0x0, symName: __ZNSt3__114__rewrap_rangeB8ue170006IPKfS2_S2_EET0_S3_T1_, symObjAddr: 0x7EE0, symBinAddr: 0x100008760, symSize: 0x30 }
  - { offsetInCU: 0x185DB, offset: 0x185DB, size: 0x8, addend: 0x0, symName: __ZNSt3__119__copy_trivial_implB8ue170006IKffEENS_4pairIPT_PT0_EES4_S4_S6_, symObjAddr: 0x7F10, symBinAddr: 0x100008790, symSize: 0x70 }
  - { offsetInCU: 0x18643, offset: 0x18643, size: 0x8, addend: 0x0, symName: __ZNSt3__119__constexpr_memmoveB8ue170006IfKfLi0EEEPT_S3_PT0_NS_15__element_countE, symObjAddr: 0x7F80, symBinAddr: 0x100008800, symSize: 0x50 }
  - { offsetInCU: 0x186B1, offset: 0x186B1, size: 0x8, addend: 0x0, symName: __ZNSt3__19make_pairB8ue170006IRPKfPfEENS_4pairINS_18__unwrap_ref_decayIT_E4typeENS6_IT0_E4typeEEEOS7_OSA_, symObjAddr: 0x7FD0, symBinAddr: 0x100008850, symSize: 0x30 }
  - { offsetInCU: 0x18700, offset: 0x18700, size: 0x8, addend: 0x0, symName: __ZNSt3__113__rewrap_iterB8ue170006IPKfS2_NS_18__unwrap_iter_implIS2_Lb1EEEEET_S5_T0_, symObjAddr: 0x80F0, symBinAddr: 0x100008970, symSize: 0x40 }
  - { offsetInCU: 0x18755, offset: 0x18755, size: 0x8, addend: 0x0, symName: __ZNSt3__116__pad_and_outputB8ue170006IcNS_11char_traitsIcEEEENS_19ostreambuf_iteratorIT_T0_EES6_PKS4_S8_S8_RNS_8ios_baseES4_, symObjAddr: 0x8510, symBinAddr: 0x100008D90, symSize: 0x220 }
  - { offsetInCU: 0x18825, offset: 0x18825, size: 0x8, addend: 0x0, symName: __ZNSt3__112__to_addressB8ue170006IcEEPT_S2_, symObjAddr: 0x8970, symBinAddr: 0x1000091F0, symSize: 0x10 }
  - { offsetInCU: 0x1885A, offset: 0x1885A, size: 0x8, addend: 0x0, symName: __ZNSt3__19use_facetB8ue170006INS_5ctypeIcEEEERKT_RKNS_6localeE, symObjAddr: 0x8B70, symBinAddr: 0x1000093F0, symSize: 0x30 }
  - { offsetInCU: 0x193E5, offset: 0x193E5, size: 0x8, addend: 0x0, symName: __ZSt28__throw_bad_array_new_lengthB8ue170006v, symObjAddr: 0x2360, symBinAddr: 0x100002BE0, symSize: 0x40 }
  - { offsetInCU: 0x1A264, offset: 0x1A264, size: 0x8, addend: 0x0, symName: __ZNSt3__16vectorINS0_IfNS_9allocatorIfEEEENS1_IS3_EEE26__swap_out_circular_bufferERNS_14__split_bufferIS3_RS4_EE, symObjAddr: 0x5470, symBinAddr: 0x100005CF0, symSize: 0x120 }
  - { offsetInCU: 0x1A2E7, offset: 0x1A2E7, size: 0x8, addend: 0x0, symName: __ZNSt3__16vectorIfNS_9allocatorIfEEE26__swap_out_circular_bufferERNS_14__split_bufferIfRS2_EE, symObjAddr: 0x6660, symBinAddr: 0x100006EE0, symSize: 0x120 }
  - { offsetInCU: 0x1C775, offset: 0x1C775, size: 0x8, addend: 0x0, symName: _main, symObjAddr: 0x0, symBinAddr: 0x100000880, symSize: 0x780 }
  - { offsetInCU: 0x1C891, offset: 0x1C891, size: 0x8, addend: 0x0, symName: __ZNSt3__16vectorINS0_IfNS_9allocatorIfEEEENS1_IS3_EEEC1B8ue170006Ev, symObjAddr: 0x780, symBinAddr: 0x100001000, symSize: 0x20 }
  - { offsetInCU: 0x1C8BA, offset: 0x1C8BA, size: 0x8, addend: 0x0, symName: __Z14getInputOutputRNSt3__16vectorINS0_IfNS_9allocatorIfEEEENS1_IS3_EEEES6_Ri, symObjAddr: 0x7A0, symBinAddr: 0x100001020, symSize: 0x610 }
  - { offsetInCU: 0x1C944, offset: 0x1C944, size: 0x8, addend: 0x0, symName: __ZNSt3__16vectorINS0_IfNS_9allocatorIfEEEENS1_IS3_EEE5beginB8ue170006Ev, symObjAddr: 0xDF0, symBinAddr: 0x100001670, symSize: 0x30 }
  - { offsetInCU: 0x1C96C, offset: 0x1C96C, size: 0x8, addend: 0x0, symName: __ZNKSt3__111__wrap_iterIPNS_6vectorIfNS_9allocatorIfEEEEEplB8ue170006El, symObjAddr: 0xE20, symBinAddr: 0x1000016A0, symSize: 0x40 }
  - { offsetInCU: 0x1C9AE, offset: 0x1C9AE, size: 0x8, addend: 0x0, symName: __ZNSt3__16vectorINS0_IfNS_9allocatorIfEEEENS1_IS3_EEEC1INS_11__wrap_iterIPS3_EELi0EEET_SA_, symObjAddr: 0xE60, symBinAddr: 0x1000016E0, symSize: 0x30 }
  - { offsetInCU: 0x1CA07, offset: 0x1CA07, size: 0x8, addend: 0x0, symName: __ZNKSt3__16vectorINS0_IfNS_9allocatorIfEEEENS1_IS3_EEE4sizeB8ue170006Ev, symObjAddr: 0xE90, symBinAddr: 0x100001710, symSize: 0x30 }
  - { offsetInCU: 0x1CA2D, offset: 0x1CA2D, size: 0x8, addend: 0x0, symName: __ZNSt3__16vectorINS0_IfNS_9allocatorIfEEEENS1_IS3_EEED1B8ue170006Ev, symObjAddr: 0xEC0, symBinAddr: 0x100001740, symSize: 0x20 }
  - { offsetInCU: 0x1CA57, offset: 0x1CA57, size: 0x8, addend: 0x0, symName: __ZNSt3__16vectorINS0_IfNS_9allocatorIfEEEENS1_IS3_EEEixB8ue170006Em, symObjAddr: 0xEE0, symBinAddr: 0x100001760, symSize: 0x20 }
  - { offsetInCU: 0x1CA8E, offset: 0x1CA8E, size: 0x8, addend: 0x0, symName: __ZNSt3__16vectorIfNS_9allocatorIfEEE5beginB8ue170006Ev, symObjAddr: 0xF40, symBinAddr: 0x1000017C0, symSize: 0x30 }
  - { offsetInCU: 0x1CAB6, offset: 0x1CAB6, size: 0x8, addend: 0x0, symName: __ZNSt3__16vectorIfNS_9allocatorIfEEE3endB8ue170006Ev, symObjAddr: 0xFB0, symBinAddr: 0x100001830, symSize: 0x30 }
  - { offsetInCU: 0x1CADE, offset: 0x1CADE, size: 0x8, addend: 0x0, symName: __ZNSt3__16vectorIfNS_9allocatorIfEEED1B8ue170006Ev, symObjAddr: 0xFE0, symBinAddr: 0x100001860, symSize: 0x20 }
  - { offsetInCU: 0x1CB08, offset: 0x1CB08, size: 0x8, addend: 0x0, symName: __ZNSt3__113basic_ostreamIcNS_11char_traitsIcEEElsB8ue170006EPFRS3_S4_E, symObjAddr: 0x1000, symBinAddr: 0x100001880, symSize: 0x20 }
  - { offsetInCU: 0x1CB41, offset: 0x1CB41, size: 0x8, addend: 0x0, symName: __ZNSt3__112basic_stringIcNS_11char_traitsIcEENS_9allocatorIcEEEC1B8ue170006ILi0EEEPKc, symObjAddr: 0x1070, symBinAddr: 0x1000018F0, symSize: 0x30 }
  - { offsetInCU: 0x1CD96, offset: 0x1CD96, size: 0x8, addend: 0x0, symName: __ZN9NeuralNetD1Ev, symObjAddr: 0x10A0, symBinAddr: 0x100001920, symSize: 0x20 }
  - { offsetInCU: 0x1CEFB, offset: 0x1CEFB, size: 0x8, addend: 0x0, symName: __ZNSt3__114basic_ifstreamIcNS_11char_traitsIcEEEC1EPKcj, symObjAddr: 0x10C0, symBinAddr: 0x100001940, symSize: 0x160 }
  - { offsetInCU: 0x1CF45, offset: 0x1CF45, size: 0x8, addend: 0x0, symName: __ZNSt3__112basic_stringIcNS_11char_traitsIcEENS_9allocatorIcEEEC1B8ue170006Ev, symObjAddr: 0x1220, symBinAddr: 0x100001AA0, symSize: 0x20 }
  - { offsetInCU: 0x1CF6F, offset: 0x1CF6F, size: 0x8, addend: 0x0, symName: __ZNKSt3__19basic_iosIcNS_11char_traitsIcEEEcvbB8ue170006Ev, symObjAddr: 0x1290, symBinAddr: 0x100001B10, symSize: 0x30 }
  - { offsetInCU: 0x1D013, offset: 0x1D013, size: 0x8, addend: 0x0, symName: __ZNSt3__118basic_stringstreamIcNS_11char_traitsIcEENS_9allocatorIcEEEC1B8ue170006ERKNS_12basic_stringIcS2_S4_EEj, symObjAddr: 0x12C0, symBinAddr: 0x100001B40, symSize: 0x100 }
  - { offsetInCU: 0x1D05B, offset: 0x1D05B, size: 0x8, addend: 0x0, symName: __ZNSt3__16vectorINS0_IfNS_9allocatorIfEEEENS1_IS3_EEE9push_backB8ue170006EOS3_, symObjAddr: 0x13C0, symBinAddr: 0x100001C40, symSize: 0x60 }
  - { offsetInCU: 0x1D092, offset: 0x1D092, size: 0x8, addend: 0x0, symName: __ZNSt3__16vectorIfNS_9allocatorIfEEEC1B8ue170006Ev, symObjAddr: 0x1420, symBinAddr: 0x100001CA0, symSize: 0x20 }
  - { offsetInCU: 0x1D0BC, offset: 0x1D0BC, size: 0x8, addend: 0x0, symName: __ZNKSt3__112basic_stringIcNS_11char_traitsIcEENS_9allocatorIcEEE6lengthB8ue170006Ev, symObjAddr: 0x1660, symBinAddr: 0x100001EE0, symSize: 0x20 }
  - { offsetInCU: 0x1D0E2, offset: 0x1D0E2, size: 0x8, addend: 0x0, symName: __ZNSt3__16vectorIfNS_9allocatorIfEEE9push_backB8ue170006EOf, symObjAddr: 0x1680, symBinAddr: 0x100001F00, symSize: 0x60 }
  - { offsetInCU: 0x1D119, offset: 0x1D119, size: 0x8, addend: 0x0, symName: __ZNSt3__16vectorIfNS_9allocatorIfEEEC1B8ue170006ESt16initializer_listIfE, symObjAddr: 0x1740, symBinAddr: 0x100001FC0, symSize: 0x30 }
  - { offsetInCU: 0x1D159, offset: 0x1D159, size: 0x8, addend: 0x0, symName: __ZNSt3__118basic_stringstreamIcNS_11char_traitsIcEENS_9allocatorIcEEED1Ev, symObjAddr: 0x1770, symBinAddr: 0x100001FF0, symSize: 0x40 }
  - { offsetInCU: 0x1D186, offset: 0x1D186, size: 0x8, addend: 0x0, symName: __ZNSt3__114basic_ifstreamIcNS_11char_traitsIcEEE5closeEv, symObjAddr: 0x17B0, symBinAddr: 0x100002030, symSize: 0x50 }
  - { offsetInCU: 0x1D1B3, offset: 0x1D1B3, size: 0x8, addend: 0x0, symName: __ZNSt3__114basic_ifstreamIcNS_11char_traitsIcEEED1Ev, symObjAddr: 0x1800, symBinAddr: 0x100002080, symSize: 0x40 }
  - { offsetInCU: 0x1D1E0, offset: 0x1D1E0, size: 0x8, addend: 0x0, symName: __ZNSt3__16vectorINS0_IfNS_9allocatorIfEEEENS1_IS3_EEEC2B8ue170006Ev, symObjAddr: 0x1840, symBinAddr: 0x1000020C0, symSize: 0x50 }
  - { offsetInCU: 0x1D216, offset: 0x1D216, size: 0x8, addend: 0x0, symName: __ZNSt3__117__compressed_pairIPNS_6vectorIfNS_9allocatorIfEEEENS2_IS4_EEEC1B8ue170006IDnNS_18__default_init_tagEEEOT_OT0_, symObjAddr: 0x1890, symBinAddr: 0x100002110, symSize: 0x30 }
  - { offsetInCU: 0x1D26E, offset: 0x1D26E, size: 0x8, addend: 0x0, symName: __ZNSt3__117__compressed_pairIPNS_6vectorIfNS_9allocatorIfEEEENS2_IS4_EEEC2B8ue170006IDnNS_18__default_init_tagEEEOT_OT0_, symObjAddr: 0x18D0, symBinAddr: 0x100002150, symSize: 0x40 }
  - { offsetInCU: 0x1D2C6, offset: 0x1D2C6, size: 0x8, addend: 0x0, symName: __ZNSt3__122__compressed_pair_elemIPNS_6vectorIfNS_9allocatorIfEEEELi0ELb0EEC2B8ue170006IDnvEEOT_, symObjAddr: 0x1910, symBinAddr: 0x100002190, symSize: 0x20 }
  - { offsetInCU: 0x1D308, offset: 0x1D308, size: 0x8, addend: 0x0, symName: __ZNSt3__122__compressed_pair_elemINS_9allocatorINS_6vectorIfNS1_IfEEEEEELi1ELb1EEC2B8ue170006ENS_18__default_init_tagE, symObjAddr: 0x1930, symBinAddr: 0x1000021B0, symSize: 0x20 }
  - { offsetInCU: 0x1D33C, offset: 0x1D33C, size: 0x8, addend: 0x0, symName: __ZNSt3__19allocatorINS_6vectorIfNS0_IfEEEEEC2B8ue170006Ev, symObjAddr: 0x1950, symBinAddr: 0x1000021D0, symSize: 0x20 }
  - { offsetInCU: 0x1D366, offset: 0x1D366, size: 0x8, addend: 0x0, symName: __ZNSt3__116__non_trivial_ifILb1ENS_9allocatorINS_6vectorIfNS1_IfEEEEEEEC2B8ue170006Ev, symObjAddr: 0x1970, symBinAddr: 0x1000021F0, symSize: 0x10 }
  - { offsetInCU: 0x1D390, offset: 0x1D390, size: 0x8, addend: 0x0, symName: __ZNSt3__16vectorINS0_IfNS_9allocatorIfEEEENS1_IS3_EEE11__make_iterB8ue170006EPS3_, symObjAddr: 0x1980, symBinAddr: 0x100002200, symSize: 0x30 }
  - { offsetInCU: 0x1D3C5, offset: 0x1D3C5, size: 0x8, addend: 0x0, symName: __ZNSt3__111__wrap_iterIPNS_6vectorIfNS_9allocatorIfEEEEEC1B8ue170006ES5_, symObjAddr: 0x19B0, symBinAddr: 0x100002230, symSize: 0x30 }
  - { offsetInCU: 0x1D3FD, offset: 0x1D3FD, size: 0x8, addend: 0x0, symName: __ZNSt3__111__wrap_iterIPNS_6vectorIfNS_9allocatorIfEEEEEC2B8ue170006ES5_, symObjAddr: 0x19E0, symBinAddr: 0x100002260, symSize: 0x20 }
  - { offsetInCU: 0x1D435, offset: 0x1D435, size: 0x8, addend: 0x0, symName: __ZNSt3__111__wrap_iterIPNS_6vectorIfNS_9allocatorIfEEEEEpLB8ue170006El, symObjAddr: 0x1A00, symBinAddr: 0x100002280, symSize: 0x20 }
  - { offsetInCU: 0x1D469, offset: 0x1D469, size: 0x8, addend: 0x0, symName: __ZNSt3__16vectorINS0_IfNS_9allocatorIfEEEENS1_IS3_EEEC2INS_11__wrap_iterIPS3_EELi0EEET_SA_, symObjAddr: 0x1A20, symBinAddr: 0x1000022A0, symSize: 0x90 }
  - { offsetInCU: 0x1D4DF, offset: 0x1D4DF, size: 0x8, addend: 0x0, symName: __ZNSt3__16vectorINS0_IfNS_9allocatorIfEEEENS1_IS3_EEE16__init_with_sizeB8ue170006INS_11__wrap_iterIPS3_EES9_EEvT_T0_m, symObjAddr: 0x1AF0, symBinAddr: 0x100002370, symSize: 0xC0 }
  - { offsetInCU: 0x1D553, offset: 0x1D553, size: 0x8, addend: 0x0, symName: __ZNKSt3__111__wrap_iterIPNS_6vectorIfNS_9allocatorIfEEEEE4baseB8ue170006Ev, symObjAddr: 0x1C20, symBinAddr: 0x1000024A0, symSize: 0x20 }
  - { offsetInCU: 0x1D579, offset: 0x1D579, size: 0x8, addend: 0x0, symName: __ZNSt3__16vectorINS0_IfNS_9allocatorIfEEEENS1_IS3_EEE16__destroy_vectorC1B8ue170006ERS5_, symObjAddr: 0x1C80, symBinAddr: 0x100002500, symSize: 0x30 }
  - { offsetInCU: 0x1D5B2, offset: 0x1D5B2, size: 0x8, addend: 0x0, symName: __ZNSt3__16vectorINS0_IfNS_9allocatorIfEEEENS1_IS3_EEE11__vallocateB8ue170006Em, symObjAddr: 0x1CB0, symBinAddr: 0x100002530, symSize: 0xA0 }
  - { offsetInCU: 0x1D5F6, offset: 0x1D5F6, size: 0x8, addend: 0x0, symName: __ZNSt3__16vectorINS0_IfNS_9allocatorIfEEEENS1_IS3_EEE18__construct_at_endINS_11__wrap_iterIPS3_EES9_EEvT_T0_m, symObjAddr: 0x1D50, symBinAddr: 0x1000025D0, symSize: 0xA0 }
  - { offsetInCU: 0x1D66C, offset: 0x1D66C, size: 0x8, addend: 0x0, symName: __ZNSt3__128__exception_guard_exceptionsINS_6vectorINS1_IfNS_9allocatorIfEEEENS2_IS4_EEE16__destroy_vectorEE10__completeB8ue170006Ev, symObjAddr: 0x1DF0, symBinAddr: 0x100002670, symSize: 0x20 }
  - { offsetInCU: 0x1D692, offset: 0x1D692, size: 0x8, addend: 0x0, symName: __ZNSt3__128__exception_guard_exceptionsINS_6vectorINS1_IfNS_9allocatorIfEEEENS2_IS4_EEE16__destroy_vectorEED1B8ue170006Ev, symObjAddr: 0x1E10, symBinAddr: 0x100002690, symSize: 0x20 }
  - { offsetInCU: 0x1D6BC, offset: 0x1D6BC, size: 0x8, addend: 0x0, symName: __ZNSt3__128__exception_guard_exceptionsINS_6vectorINS1_IfNS_9allocatorIfEEEENS2_IS4_EEE16__destroy_vectorEEC1B8ue170006ES7_, symObjAddr: 0x1E30, symBinAddr: 0x1000026B0, symSize: 0x30 }
  - { offsetInCU: 0x1D6F4, offset: 0x1D6F4, size: 0x8, addend: 0x0, symName: __ZNSt3__128__exception_guard_exceptionsINS_6vectorINS1_IfNS_9allocatorIfEEEENS2_IS4_EEE16__destroy_vectorEEC2B8ue170006ES7_, symObjAddr: 0x1E60, symBinAddr: 0x1000026E0, symSize: 0x20 }
  - { offsetInCU: 0x1D72C, offset: 0x1D72C, size: 0x8, addend: 0x0, symName: __ZNSt3__16vectorINS0_IfNS_9allocatorIfEEEENS1_IS3_EEE16__destroy_vectorC2B8ue170006ERS5_, symObjAddr: 0x1E80, symBinAddr: 0x100002700, symSize: 0x20 }
  - { offsetInCU: 0x1D765, offset: 0x1D765, size: 0x8, addend: 0x0, symName: __ZNKSt3__16vectorINS0_IfNS_9allocatorIfEEEENS1_IS3_EEE8max_sizeEv, symObjAddr: 0x1EA0, symBinAddr: 0x100002720, symSize: 0x60 }
  - { offsetInCU: 0x1D78D, offset: 0x1D78D, size: 0x8, addend: 0x0, symName: __ZNKSt3__16vectorINS0_IfNS_9allocatorIfEEEENS1_IS3_EEE20__throw_length_errorB8ue170006Ev, symObjAddr: 0x1F00, symBinAddr: 0x100002780, symSize: 0x20 }
  - { offsetInCU: 0x1D7B3, offset: 0x1D7B3, size: 0x8, addend: 0x0, symName: __ZNSt3__16vectorINS0_IfNS_9allocatorIfEEEENS1_IS3_EEE7__allocB8ue170006Ev, symObjAddr: 0x1F60, symBinAddr: 0x1000027E0, symSize: 0x20 }
  - { offsetInCU: 0x1D7D9, offset: 0x1D7D9, size: 0x8, addend: 0x0, symName: __ZNSt3__16vectorINS0_IfNS_9allocatorIfEEEENS1_IS3_EEE9__end_capB8ue170006Ev, symObjAddr: 0x1F80, symBinAddr: 0x100002800, symSize: 0x20 }
  - { offsetInCU: 0x1D7FF, offset: 0x1D7FF, size: 0x8, addend: 0x0, symName: __ZNKSt3__16vectorINS0_IfNS_9allocatorIfEEEENS1_IS3_EEE14__annotate_newB8ue170006Em, symObjAddr: 0x1FA0, symBinAddr: 0x100002820, symSize: 0xA0 }
  - { offsetInCU: 0x1D83F, offset: 0x1D83F, size: 0x8, addend: 0x0, symName: __ZNSt3__116allocator_traitsINS_9allocatorINS_6vectorIfNS1_IfEEEEEEE8max_sizeB8ue170006IS5_vvEEmRKS5_, symObjAddr: 0x2070, symBinAddr: 0x1000028F0, symSize: 0x30 }
  - { offsetInCU: 0x1D86A, offset: 0x1D86A, size: 0x8, addend: 0x0, symName: __ZNKSt3__16vectorINS0_IfNS_9allocatorIfEEEENS1_IS3_EEE7__allocB8ue170006Ev, symObjAddr: 0x20A0, symBinAddr: 0x100002920, symSize: 0x20 }
  - { offsetInCU: 0x1D890, offset: 0x1D890, size: 0x8, addend: 0x0, symName: __ZNSt3__114numeric_limitsIlE3maxB8ue170006Ev, symObjAddr: 0x20C0, symBinAddr: 0x100002940, symSize: 0x10 }
  - { offsetInCU: 0x1D8B9, offset: 0x1D8B9, size: 0x8, addend: 0x0, symName: __ZNKSt3__16__lessIvvEclB8ue170006ImmEEbRKT_RKT0_, symObjAddr: 0x2120, symBinAddr: 0x1000029A0, symSize: 0x30 }
  - { offsetInCU: 0x1D90D, offset: 0x1D90D, size: 0x8, addend: 0x0, symName: __ZNSt3__114numeric_limitsImE3maxB8ue170006Ev, symObjAddr: 0x2150, symBinAddr: 0x1000029D0, symSize: 0x10 }
  - { offsetInCU: 0x1D921, offset: 0x1D921, size: 0x8, addend: 0x0, symName: __ZNSt3__123__libcpp_numeric_limitsImLb1EE3maxB8ue170006Ev, symObjAddr: 0x2160, symBinAddr: 0x1000029E0, symSize: 0x10 }
  - { offsetInCU: 0x1D935, offset: 0x1D935, size: 0x8, addend: 0x0, symName: __ZNKSt3__117__compressed_pairIPNS_6vectorIfNS_9allocatorIfEEEENS2_IS4_EEE6secondB8ue170006Ev, symObjAddr: 0x2170, symBinAddr: 0x1000029F0, symSize: 0x20 }
  - { offsetInCU: 0x1D95B, offset: 0x1D95B, size: 0x8, addend: 0x0, symName: __ZNKSt3__122__compressed_pair_elemINS_9allocatorINS_6vectorIfNS1_IfEEEEEELi1ELb1EE5__getB8ue170006Ev, symObjAddr: 0x2190, symBinAddr: 0x100002A10, symSize: 0x10 }
  - { offsetInCU: 0x1D981, offset: 0x1D981, size: 0x8, addend: 0x0, symName: __ZNSt3__123__libcpp_numeric_limitsIlLb1EE3maxB8ue170006Ev, symObjAddr: 0x21A0, symBinAddr: 0x100002A20, symSize: 0x10 }
  - { offsetInCU: 0x1D995, offset: 0x1D995, size: 0x8, addend: 0x0, symName: __ZNSt12length_errorC1B8ue170006EPKc, symObjAddr: 0x2220, symBinAddr: 0x100002AA0, symSize: 0x30 }
  - { offsetInCU: 0x1D9CD, offset: 0x1D9CD, size: 0x8, addend: 0x0, symName: __ZNSt12length_errorC2B8ue170006EPKc, symObjAddr: 0x2250, symBinAddr: 0x100002AD0, symSize: 0x40 }
  - { offsetInCU: 0x1DA05, offset: 0x1DA05, size: 0x8, addend: 0x0, symName: __ZNSt3__19allocatorINS_6vectorIfNS0_IfEEEEE17allocate_at_leastB8ue170006Em, symObjAddr: 0x22D0, symBinAddr: 0x100002B50, symSize: 0x40 }
  - { offsetInCU: 0x1DA39, offset: 0x1DA39, size: 0x8, addend: 0x0, symName: __ZNSt3__19allocatorINS_6vectorIfNS0_IfEEEEE8allocateB8ue170006Em, symObjAddr: 0x2310, symBinAddr: 0x100002B90, symSize: 0x50 }
  - { offsetInCU: 0x1DA6D, offset: 0x1DA6D, size: 0x8, addend: 0x0, symName: __ZNSt3__117__compressed_pairIPNS_6vectorIfNS_9allocatorIfEEEENS2_IS4_EEE6secondB8ue170006Ev, symObjAddr: 0x2470, symBinAddr: 0x100002CF0, symSize: 0x20 }
  - { offsetInCU: 0x1DA93, offset: 0x1DA93, size: 0x8, addend: 0x0, symName: __ZNSt3__122__compressed_pair_elemINS_9allocatorINS_6vectorIfNS1_IfEEEEEELi1ELb1EE5__getB8ue170006Ev, symObjAddr: 0x2490, symBinAddr: 0x100002D10, symSize: 0x10 }
  - { offsetInCU: 0x1DAB9, offset: 0x1DAB9, size: 0x8, addend: 0x0, symName: __ZNSt3__117__compressed_pairIPNS_6vectorIfNS_9allocatorIfEEEENS2_IS4_EEE5firstB8ue170006Ev, symObjAddr: 0x24A0, symBinAddr: 0x100002D20, symSize: 0x20 }
  - { offsetInCU: 0x1DADF, offset: 0x1DADF, size: 0x8, addend: 0x0, symName: __ZNSt3__122__compressed_pair_elemIPNS_6vectorIfNS_9allocatorIfEEEELi0ELb0EE5__getB8ue170006Ev, symObjAddr: 0x24C0, symBinAddr: 0x100002D40, symSize: 0x10 }
  - { offsetInCU: 0x1DB05, offset: 0x1DB05, size: 0x8, addend: 0x0, symName: __ZNKSt3__16vectorINS0_IfNS_9allocatorIfEEEENS1_IS3_EEE31__annotate_contiguous_containerB8ue170006EPKvS7_S7_S7_, symObjAddr: 0x24D0, symBinAddr: 0x100002D50, symSize: 0x20 }
  - { offsetInCU: 0x1DB57, offset: 0x1DB57, size: 0x8, addend: 0x0, symName: __ZNKSt3__16vectorINS0_IfNS_9allocatorIfEEEENS1_IS3_EEE4dataB8ue170006Ev, symObjAddr: 0x24F0, symBinAddr: 0x100002D70, symSize: 0x20 }
  - { offsetInCU: 0x1DB7D, offset: 0x1DB7D, size: 0x8, addend: 0x0, symName: __ZNKSt3__16vectorINS0_IfNS_9allocatorIfEEEENS1_IS3_EEE8capacityB8ue170006Ev, symObjAddr: 0x2510, symBinAddr: 0x100002D90, symSize: 0x40 }
  - { offsetInCU: 0x1DBA3, offset: 0x1DBA3, size: 0x8, addend: 0x0, symName: __ZNKSt3__16vectorINS0_IfNS_9allocatorIfEEEENS1_IS3_EEE9__end_capB8ue170006Ev, symObjAddr: 0x2560, symBinAddr: 0x100002DE0, symSize: 0x20 }
  - { offsetInCU: 0x1DBC9, offset: 0x1DBC9, size: 0x8, addend: 0x0, symName: __ZNKSt3__117__compressed_pairIPNS_6vectorIfNS_9allocatorIfEEEENS2_IS4_EEE5firstB8ue170006Ev, symObjAddr: 0x2580, symBinAddr: 0x100002E00, symSize: 0x20 }
  - { offsetInCU: 0x1DBEF, offset: 0x1DBEF, size: 0x8, addend: 0x0, symName: __ZNKSt3__122__compressed_pair_elemIPNS_6vectorIfNS_9allocatorIfEEEELi0ELb0EE5__getB8ue170006Ev, symObjAddr: 0x25A0, symBinAddr: 0x100002E20, symSize: 0x10 }
  - { offsetInCU: 0x1DC30, offset: 0x1DC30, size: 0x8, addend: 0x0, symName: __ZNSt3__16vectorINS0_IfNS_9allocatorIfEEEENS1_IS3_EEE21_ConstructTransactionC1B8ue170006ERS5_m, symObjAddr: 0x25B0, symBinAddr: 0x100002E30, symSize: 0x30 }
  - { offsetInCU: 0x1DC78, offset: 0x1DC78, size: 0x8, addend: 0x0, symName: __ZNSt3__16vectorINS0_IfNS_9allocatorIfEEEENS1_IS3_EEE21_ConstructTransactionD1B8ue170006Ev, symObjAddr: 0x2670, symBinAddr: 0x100002EF0, symSize: 0x20 }
  - { offsetInCU: 0x1DCA2, offset: 0x1DCA2, size: 0x8, addend: 0x0, symName: __ZNSt3__16vectorINS0_IfNS_9allocatorIfEEEENS1_IS3_EEE21_ConstructTransactionC2B8ue170006ERS5_m, symObjAddr: 0x2690, symBinAddr: 0x100002F10, symSize: 0x40 }
  - { offsetInCU: 0x1DD0B, offset: 0x1DD0B, size: 0x8, addend: 0x0, symName: __ZNSt3__119__unwrap_range_implINS_11__wrap_iterIPNS_6vectorIfNS_9allocatorIfEEEEEES7_E8__unwrapB8ue170006ES7_S7_, symObjAddr: 0x2880, symBinAddr: 0x100003100, symSize: 0x60 }
  - { offsetInCU: 0x1DD42, offset: 0x1DD42, size: 0x8, addend: 0x0, symName: __ZNSt3__14pairIPNS_6vectorIfNS_9allocatorIfEEEES5_EC1B8ue170006IS5_S5_LPv0EEEOT_OT0_, symObjAddr: 0x2910, symBinAddr: 0x100003190, symSize: 0x30 }
  - { offsetInCU: 0x1DDA0, offset: 0x1DDA0, size: 0x8, addend: 0x0, symName: __ZNSt3__118__unwrap_iter_implINS_11__wrap_iterIPNS_6vectorIfNS_9allocatorIfEEEEEELb1EE8__unwrapB8ue170006ES7_, symObjAddr: 0x2940, symBinAddr: 0x1000031C0, symSize: 0x20 }
  - { offsetInCU: 0x1DDCE, offset: 0x1DDCE, size: 0x8, addend: 0x0, symName: __ZNSt3__119__to_address_helperINS_11__wrap_iterIPNS_6vectorIfNS_9allocatorIfEEEEEEvE6__callB8ue170006ERKS7_, symObjAddr: 0x2980, symBinAddr: 0x100003200, symSize: 0x30 }
  - { offsetInCU: 0x1DDF1, offset: 0x1DDF1, size: 0x8, addend: 0x0, symName: __ZNSt3__114pointer_traitsINS_11__wrap_iterIPNS_6vectorIfNS_9allocatorIfEEEEEEE10to_addressB8ue170006ES7_, symObjAddr: 0x29B0, symBinAddr: 0x100003230, symSize: 0x30 }
  - { offsetInCU: 0x1DE14, offset: 0x1DE14, size: 0x8, addend: 0x0, symName: __ZNSt3__14pairIPNS_6vectorIfNS_9allocatorIfEEEES5_EC2B8ue170006IS5_S5_LPv0EEEOT_OT0_, symObjAddr: 0x29E0, symBinAddr: 0x100003260, symSize: 0x30 }
  - { offsetInCU: 0x1DE72, offset: 0x1DE72, size: 0x8, addend: 0x0, symName: __ZNSt3__129_AllocatorDestroyRangeReverseINS_9allocatorINS_6vectorIfNS1_IfEEEEEEPS4_EC1B8ue170006ERS5_RS6_S9_, symObjAddr: 0x2A70, symBinAddr: 0x1000032F0, symSize: 0x40 }
  - { offsetInCU: 0x1DEC9, offset: 0x1DEC9, size: 0x8, addend: 0x0, symName: __ZNSt3__116allocator_traitsINS_9allocatorINS_6vectorIfNS1_IfEEEEEEE9constructB8ue170006IS4_JRS4_EvvEEvRS5_PT_DpOT0_, symObjAddr: 0x2AB0, symBinAddr: 0x100003330, symSize: 0x30 }
  - { offsetInCU: 0x1DF1D, offset: 0x1DF1D, size: 0x8, addend: 0x0, symName: __ZNSt3__128__exception_guard_exceptionsINS_29_AllocatorDestroyRangeReverseINS_9allocatorINS_6vectorIfNS2_IfEEEEEEPS5_EEE10__completeB8ue170006Ev, symObjAddr: 0x2AE0, symBinAddr: 0x100003360, symSize: 0x20 }
  - { offsetInCU: 0x1DF43, offset: 0x1DF43, size: 0x8, addend: 0x0, symName: __ZNSt3__128__exception_guard_exceptionsINS_29_AllocatorDestroyRangeReverseINS_9allocatorINS_6vectorIfNS2_IfEEEEEEPS5_EEED1B8ue170006Ev, symObjAddr: 0x2B00, symBinAddr: 0x100003380, symSize: 0x20 }
  - { offsetInCU: 0x1DF6D, offset: 0x1DF6D, size: 0x8, addend: 0x0, symName: __ZNSt3__128__exception_guard_exceptionsINS_29_AllocatorDestroyRangeReverseINS_9allocatorINS_6vectorIfNS2_IfEEEEEEPS5_EEEC1B8ue170006ES8_, symObjAddr: 0x2B20, symBinAddr: 0x1000033A0, symSize: 0x40 }
  - { offsetInCU: 0x1DFA5, offset: 0x1DFA5, size: 0x8, addend: 0x0, symName: __ZNSt3__128__exception_guard_exceptionsINS_29_AllocatorDestroyRangeReverseINS_9allocatorINS_6vectorIfNS2_IfEEEEEEPS5_EEEC2B8ue170006ES8_, symObjAddr: 0x2B60, symBinAddr: 0x1000033E0, symSize: 0x30 }
  - { offsetInCU: 0x1DFDD, offset: 0x1DFDD, size: 0x8, addend: 0x0, symName: __ZNSt3__129_AllocatorDestroyRangeReverseINS_9allocatorINS_6vectorIfNS1_IfEEEEEEPS4_EC2B8ue170006ERS5_RS6_S9_, symObjAddr: 0x2B90, symBinAddr: 0x100003410, symSize: 0x40 }
  - { offsetInCU: 0x1E034, offset: 0x1E034, size: 0x8, addend: 0x0, symName: __ZNSt3__16vectorIfNS_9allocatorIfEEEC1ERKS3_, symObjAddr: 0x2C10, symBinAddr: 0x100003490, symSize: 0x30 }
  - { offsetInCU: 0x1E06F, offset: 0x1E06F, size: 0x8, addend: 0x0, symName: __ZNSt3__16vectorIfNS_9allocatorIfEEEC2ERKS3_, symObjAddr: 0x2C40, symBinAddr: 0x1000034C0, symSize: 0xA0 }
  - { offsetInCU: 0x1E0B5, offset: 0x1E0B5, size: 0x8, addend: 0x0, symName: __ZNSt3__116allocator_traitsINS_9allocatorIfEEE37select_on_container_copy_constructionB8ue170006IS2_vvEES2_RKS2_, symObjAddr: 0x2CE0, symBinAddr: 0x100003560, symSize: 0x10 }
  - { offsetInCU: 0x1E0E4, offset: 0x1E0E4, size: 0x8, addend: 0x0, symName: __ZNKSt3__16vectorIfNS_9allocatorIfEEE7__allocB8ue170006Ev, symObjAddr: 0x2CF0, symBinAddr: 0x100003570, symSize: 0x20 }
  - { offsetInCU: 0x1E110, offset: 0x1E110, size: 0x8, addend: 0x0, symName: __ZNSt3__117__compressed_pairIPfNS_9allocatorIfEEEC1B8ue170006IDnS3_EEOT_OT0_, symObjAddr: 0x2D10, symBinAddr: 0x100003590, symSize: 0x30 }
  - { offsetInCU: 0x1E168, offset: 0x1E168, size: 0x8, addend: 0x0, symName: __ZNSt3__16vectorIfNS_9allocatorIfEEE16__init_with_sizeB8ue170006IPfS5_EEvT_T0_m, symObjAddr: 0x2D40, symBinAddr: 0x1000035C0, symSize: 0xB0 }
  - { offsetInCU: 0x1E1DC, offset: 0x1E1DC, size: 0x8, addend: 0x0, symName: __ZNKSt3__16vectorIfNS_9allocatorIfEEE4sizeB8ue170006Ev, symObjAddr: 0x2DF0, symBinAddr: 0x100003670, symSize: 0x20 }
  - { offsetInCU: 0x1E202, offset: 0x1E202, size: 0x8, addend: 0x0, symName: __ZNKSt3__117__compressed_pairIPfNS_9allocatorIfEEE6secondB8ue170006Ev, symObjAddr: 0x2E10, symBinAddr: 0x100003690, symSize: 0x20 }
  - { offsetInCU: 0x1E228, offset: 0x1E228, size: 0x8, addend: 0x0, symName: __ZNKSt3__122__compressed_pair_elemINS_9allocatorIfEELi1ELb1EE5__getB8ue170006Ev, symObjAddr: 0x2E30, symBinAddr: 0x1000036B0, symSize: 0x10 }
  - { offsetInCU: 0x1E24E, offset: 0x1E24E, size: 0x8, addend: 0x0, symName: __ZNSt3__117__compressed_pairIPfNS_9allocatorIfEEEC2B8ue170006IDnS3_EEOT_OT0_, symObjAddr: 0x2E40, symBinAddr: 0x1000036C0, symSize: 0x40 }
  - { offsetInCU: 0x1E2A6, offset: 0x1E2A6, size: 0x8, addend: 0x0, symName: __ZNSt3__122__compressed_pair_elemIPfLi0ELb0EEC2B8ue170006IDnvEEOT_, symObjAddr: 0x2E80, symBinAddr: 0x100003700, symSize: 0x20 }
  - { offsetInCU: 0x1E2E8, offset: 0x1E2E8, size: 0x8, addend: 0x0, symName: __ZNSt3__122__compressed_pair_elemINS_9allocatorIfEELi1ELb1EEC2B8ue170006IS2_vEEOT_, symObjAddr: 0x2EA0, symBinAddr: 0x100003720, symSize: 0x10 }
  - { offsetInCU: 0x1E32A, offset: 0x1E32A, size: 0x8, addend: 0x0, symName: __ZNSt3__16vectorIfNS_9allocatorIfEEE16__destroy_vectorC1B8ue170006ERS3_, symObjAddr: 0x2EF0, symBinAddr: 0x100003770, symSize: 0x30 }
  - { offsetInCU: 0x1E363, offset: 0x1E363, size: 0x8, addend: 0x0, symName: __ZNSt3__16vectorIfNS_9allocatorIfEEE11__vallocateB8ue170006Em, symObjAddr: 0x2F20, symBinAddr: 0x1000037A0, symSize: 0xA0 }
  - { offsetInCU: 0x1E3A7, offset: 0x1E3A7, size: 0x8, addend: 0x0, symName: __ZNSt3__16vectorIfNS_9allocatorIfEEE18__construct_at_endIPfS5_EEvT_T0_m, symObjAddr: 0x2FC0, symBinAddr: 0x100003840, symSize: 0x90 }
  - { offsetInCU: 0x1E41D, offset: 0x1E41D, size: 0x8, addend: 0x0, symName: __ZNSt3__128__exception_guard_exceptionsINS_6vectorIfNS_9allocatorIfEEE16__destroy_vectorEE10__completeB8ue170006Ev, symObjAddr: 0x3050, symBinAddr: 0x1000038D0, symSize: 0x20 }
  - { offsetInCU: 0x1E443, offset: 0x1E443, size: 0x8, addend: 0x0, symName: __ZNSt3__128__exception_guard_exceptionsINS_6vectorIfNS_9allocatorIfEEE16__destroy_vectorEED1B8ue170006Ev, symObjAddr: 0x3070, symBinAddr: 0x1000038F0, symSize: 0x20 }
  - { offsetInCU: 0x1E46D, offset: 0x1E46D, size: 0x8, addend: 0x0, symName: __ZNSt3__128__exception_guard_exceptionsINS_6vectorIfNS_9allocatorIfEEE16__destroy_vectorEEC1B8ue170006ES5_, symObjAddr: 0x3090, symBinAddr: 0x100003910, symSize: 0x30 }
  - { offsetInCU: 0x1E4A5, offset: 0x1E4A5, size: 0x8, addend: 0x0, symName: __ZNSt3__128__exception_guard_exceptionsINS_6vectorIfNS_9allocatorIfEEE16__destroy_vectorEEC2B8ue170006ES5_, symObjAddr: 0x30C0, symBinAddr: 0x100003940, symSize: 0x20 }
  - { offsetInCU: 0x1E4DD, offset: 0x1E4DD, size: 0x8, addend: 0x0, symName: __ZNSt3__16vectorIfNS_9allocatorIfEEE16__destroy_vectorC2B8ue170006ERS3_, symObjAddr: 0x30E0, symBinAddr: 0x100003960, symSize: 0x20 }
  - { offsetInCU: 0x1E516, offset: 0x1E516, size: 0x8, addend: 0x0, symName: __ZNKSt3__16vectorIfNS_9allocatorIfEEE8max_sizeEv, symObjAddr: 0x3100, symBinAddr: 0x100003980, symSize: 0x60 }
  - { offsetInCU: 0x1E53E, offset: 0x1E53E, size: 0x8, addend: 0x0, symName: __ZNKSt3__16vectorIfNS_9allocatorIfEEE20__throw_length_errorB8ue170006Ev, symObjAddr: 0x3160, symBinAddr: 0x1000039E0, symSize: 0x20 }
  - { offsetInCU: 0x1E564, offset: 0x1E564, size: 0x8, addend: 0x0, symName: __ZNSt3__16vectorIfNS_9allocatorIfEEE7__allocB8ue170006Ev, symObjAddr: 0x31C0, symBinAddr: 0x100003A40, symSize: 0x20 }
  - { offsetInCU: 0x1E58A, offset: 0x1E58A, size: 0x8, addend: 0x0, symName: __ZNSt3__16vectorIfNS_9allocatorIfEEE9__end_capB8ue170006Ev, symObjAddr: 0x31E0, symBinAddr: 0x100003A60, symSize: 0x20 }
  - { offsetInCU: 0x1E5B0, offset: 0x1E5B0, size: 0x8, addend: 0x0, symName: __ZNKSt3__16vectorIfNS_9allocatorIfEEE14__annotate_newB8ue170006Em, symObjAddr: 0x3200, symBinAddr: 0x100003A80, symSize: 0xB0 }
  - { offsetInCU: 0x1E5E5, offset: 0x1E5E5, size: 0x8, addend: 0x0, symName: __ZNSt3__116allocator_traitsINS_9allocatorIfEEE8max_sizeB8ue170006IS2_vvEEmRKS2_, symObjAddr: 0x32B0, symBinAddr: 0x100003B30, symSize: 0x20 }
  - { offsetInCU: 0x1E610, offset: 0x1E610, size: 0x8, addend: 0x0, symName: __ZNSt3__19allocatorIfE17allocate_at_leastB8ue170006Em, symObjAddr: 0x3310, symBinAddr: 0x100003B90, symSize: 0x40 }
  - { offsetInCU: 0x1E644, offset: 0x1E644, size: 0x8, addend: 0x0, symName: __ZNSt3__19allocatorIfE8allocateB8ue170006Em, symObjAddr: 0x3350, symBinAddr: 0x100003BD0, symSize: 0x50 }
  - { offsetInCU: 0x1E678, offset: 0x1E678, size: 0x8, addend: 0x0, symName: __ZNSt3__117__compressed_pairIPfNS_9allocatorIfEEE6secondB8ue170006Ev, symObjAddr: 0x33A0, symBinAddr: 0x100003C20, symSize: 0x20 }
  - { offsetInCU: 0x1E69E, offset: 0x1E69E, size: 0x8, addend: 0x0, symName: __ZNSt3__122__compressed_pair_elemINS_9allocatorIfEELi1ELb1EE5__getB8ue170006Ev, symObjAddr: 0x33C0, symBinAddr: 0x100003C40, symSize: 0x10 }
  - { offsetInCU: 0x1E6C4, offset: 0x1E6C4, size: 0x8, addend: 0x0, symName: __ZNSt3__117__compressed_pairIPfNS_9allocatorIfEEE5firstB8ue170006Ev, symObjAddr: 0x33D0, symBinAddr: 0x100003C50, symSize: 0x20 }
  - { offsetInCU: 0x1E6EA, offset: 0x1E6EA, size: 0x8, addend: 0x0, symName: __ZNSt3__122__compressed_pair_elemIPfLi0ELb0EE5__getB8ue170006Ev, symObjAddr: 0x33F0, symBinAddr: 0x100003C70, symSize: 0x10 }
  - { offsetInCU: 0x1E710, offset: 0x1E710, size: 0x8, addend: 0x0, symName: __ZNKSt3__16vectorIfNS_9allocatorIfEEE31__annotate_contiguous_containerB8ue170006EPKvS5_S5_S5_, symObjAddr: 0x3400, symBinAddr: 0x100003C80, symSize: 0x20 }
  - { offsetInCU: 0x1E762, offset: 0x1E762, size: 0x8, addend: 0x0, symName: __ZNKSt3__16vectorIfNS_9allocatorIfEEE4dataB8ue170006Ev, symObjAddr: 0x3420, symBinAddr: 0x100003CA0, symSize: 0x20 }
  - { offsetInCU: 0x1E788, offset: 0x1E788, size: 0x8, addend: 0x0, symName: __ZNKSt3__16vectorIfNS_9allocatorIfEEE8capacityB8ue170006Ev, symObjAddr: 0x3440, symBinAddr: 0x100003CC0, symSize: 0x30 }
  - { offsetInCU: 0x1E7AE, offset: 0x1E7AE, size: 0x8, addend: 0x0, symName: __ZNKSt3__16vectorIfNS_9allocatorIfEEE9__end_capB8ue170006Ev, symObjAddr: 0x3480, symBinAddr: 0x100003D00, symSize: 0x20 }
  - { offsetInCU: 0x1E7D4, offset: 0x1E7D4, size: 0x8, addend: 0x0, symName: __ZNKSt3__117__compressed_pairIPfNS_9allocatorIfEEE5firstB8ue170006Ev, symObjAddr: 0x34A0, symBinAddr: 0x100003D20, symSize: 0x20 }
  - { offsetInCU: 0x1E7FA, offset: 0x1E7FA, size: 0x8, addend: 0x0, symName: __ZNKSt3__122__compressed_pair_elemIPfLi0ELb0EE5__getB8ue170006Ev, symObjAddr: 0x34C0, symBinAddr: 0x100003D40, symSize: 0x10 }
  - { offsetInCU: 0x1E83B, offset: 0x1E83B, size: 0x8, addend: 0x0, symName: __ZNSt3__16vectorIfNS_9allocatorIfEEE21_ConstructTransactionC1B8ue170006ERS3_m, symObjAddr: 0x34D0, symBinAddr: 0x100003D50, symSize: 0x30 }
  - { offsetInCU: 0x1E883, offset: 0x1E883, size: 0x8, addend: 0x0, symName: __ZNSt3__16vectorIfNS_9allocatorIfEEE21_ConstructTransactionD1B8ue170006Ev, symObjAddr: 0x3580, symBinAddr: 0x100003E00, symSize: 0x20 }
  - { offsetInCU: 0x1E8AD, offset: 0x1E8AD, size: 0x8, addend: 0x0, symName: __ZNSt3__16vectorIfNS_9allocatorIfEEE21_ConstructTransactionC2B8ue170006ERS3_m, symObjAddr: 0x35A0, symBinAddr: 0x100003E20, symSize: 0x40 }
  - { offsetInCU: 0x1E916, offset: 0x1E916, size: 0x8, addend: 0x0, symName: __ZNSt3__119__unwrap_range_implIPfS1_E8__unwrapB8ue170006ES1_S1_, symObjAddr: 0x36B0, symBinAddr: 0x100003F30, symSize: 0x50 }
  - { offsetInCU: 0x1E94D, offset: 0x1E94D, size: 0x8, addend: 0x0, symName: __ZNSt3__14pairIPfS1_EC1B8ue170006IS1_S1_LPv0EEEOT_OT0_, symObjAddr: 0x3700, symBinAddr: 0x100003F80, symSize: 0x30 }
  - { offsetInCU: 0x1E9AB, offset: 0x1E9AB, size: 0x8, addend: 0x0, symName: __ZNSt3__14pairIPfS1_EC2B8ue170006IS1_S1_LPv0EEEOT_OT0_, symObjAddr: 0x3730, symBinAddr: 0x100003FB0, symSize: 0x30 }
  - { offsetInCU: 0x1EA13, offset: 0x1EA13, size: 0x8, addend: 0x0, symName: __ZNKSt3__114__copy_trivialclB8ue170006IffLi0EEENS_4pairIPT_PT0_EES4_S4_S6_, symObjAddr: 0x38D0, symBinAddr: 0x100004150, symSize: 0x40 }
  - { offsetInCU: 0x1EA7B, offset: 0x1EA7B, size: 0x8, addend: 0x0, symName: __ZNSt3__14pairIPfS1_EC1B8ue170006IRS1_S1_LPv0EEEOT_OT0_, symObjAddr: 0x3A60, symBinAddr: 0x1000042E0, symSize: 0x30 }
  - { offsetInCU: 0x1EAD9, offset: 0x1EAD9, size: 0x8, addend: 0x0, symName: __ZNSt3__14pairIPfS1_EC2B8ue170006IRS1_S1_LPv0EEEOT_OT0_, symObjAddr: 0x3A90, symBinAddr: 0x100004310, symSize: 0x30 }
  - { offsetInCU: 0x1EB37, offset: 0x1EB37, size: 0x8, addend: 0x0, symName: __ZNSt3__119__unwrap_range_implIPfS1_E8__rewrapB8ue170006ES1_S1_, symObjAddr: 0x3AC0, symBinAddr: 0x100004340, symSize: 0x30 }
  - { offsetInCU: 0x1EB68, offset: 0x1EB68, size: 0x8, addend: 0x0, symName: __ZNSt3__118__unwrap_iter_implIPfLb1EE8__unwrapB8ue170006ES1_, symObjAddr: 0x3AF0, symBinAddr: 0x100004370, symSize: 0x20 }
  - { offsetInCU: 0x1EB8B, offset: 0x1EB8B, size: 0x8, addend: 0x0, symName: __ZNSt3__118__unwrap_iter_implIPfLb1EE8__rewrapB8ue170006ES1_S1_, symObjAddr: 0x3B10, symBinAddr: 0x100004390, symSize: 0x50 }
  - { offsetInCU: 0x1EBBC, offset: 0x1EBBC, size: 0x8, addend: 0x0, symName: __ZNSt3__16vectorIfNS_9allocatorIfEEE21_ConstructTransactionD2B8ue170006Ev, symObjAddr: 0x3B60, symBinAddr: 0x1000043E0, symSize: 0x20 }
  - { offsetInCU: 0x1EBE6, offset: 0x1EBE6, size: 0x8, addend: 0x0, symName: __ZNSt3__128__exception_guard_exceptionsINS_6vectorIfNS_9allocatorIfEEE16__destroy_vectorEED2B8ue170006Ev, symObjAddr: 0x3B80, symBinAddr: 0x100004400, symSize: 0x40 }
  - { offsetInCU: 0x1EC10, offset: 0x1EC10, size: 0x8, addend: 0x0, symName: __ZNSt3__16vectorIfNS_9allocatorIfEEE16__destroy_vectorclB8ue170006Ev, symObjAddr: 0x3BC0, symBinAddr: 0x100004440, symSize: 0x80 }
  - { offsetInCU: 0x1EC36, offset: 0x1EC36, size: 0x8, addend: 0x0, symName: __ZNSt3__16vectorIfNS_9allocatorIfEEE7__clearB8ue170006Ev, symObjAddr: 0x3C40, symBinAddr: 0x1000044C0, symSize: 0x20 }
  - { offsetInCU: 0x1EC5C, offset: 0x1EC5C, size: 0x8, addend: 0x0, symName: __ZNKSt3__16vectorIfNS_9allocatorIfEEE17__annotate_deleteB8ue170006Ev, symObjAddr: 0x3C60, symBinAddr: 0x1000044E0, symSize: 0xB0 }
  - { offsetInCU: 0x1EC82, offset: 0x1EC82, size: 0x8, addend: 0x0, symName: __ZNSt3__116allocator_traitsINS_9allocatorIfEEE10deallocateB8ue170006ERS2_Pfm, symObjAddr: 0x3D10, symBinAddr: 0x100004590, symSize: 0x30 }
  - { offsetInCU: 0x1ECC4, offset: 0x1ECC4, size: 0x8, addend: 0x0, symName: __ZNSt3__16vectorIfNS_9allocatorIfEEE22__base_destruct_at_endB8ue170006EPf, symObjAddr: 0x3D40, symBinAddr: 0x1000045C0, symSize: 0x80 }
  - { offsetInCU: 0x1ED08, offset: 0x1ED08, size: 0x8, addend: 0x0, symName: __ZNSt3__116allocator_traitsINS_9allocatorIfEEE7destroyB8ue170006IfvvEEvRS2_PT_, symObjAddr: 0x3DC0, symBinAddr: 0x100004640, symSize: 0x20 }
  - { offsetInCU: 0x1ED42, offset: 0x1ED42, size: 0x8, addend: 0x0, symName: __ZNSt3__19allocatorIfE10deallocateB8ue170006EPfm, symObjAddr: 0x3E10, symBinAddr: 0x100004690, symSize: 0x40 }
  - { offsetInCU: 0x1ED84, offset: 0x1ED84, size: 0x8, addend: 0x0, symName: __ZNSt3__128__exception_guard_exceptionsINS_29_AllocatorDestroyRangeReverseINS_9allocatorINS_6vectorIfNS2_IfEEEEEEPS5_EEED2B8ue170006Ev, symObjAddr: 0x3F50, symBinAddr: 0x1000047D0, symSize: 0x40 }
  - { offsetInCU: 0x1EDAE, offset: 0x1EDAE, size: 0x8, addend: 0x0, symName: __ZNKSt3__129_AllocatorDestroyRangeReverseINS_9allocatorINS_6vectorIfNS1_IfEEEEEEPS4_EclB8ue170006Ev, symObjAddr: 0x3F90, symBinAddr: 0x100004810, symSize: 0x60 }
  - { offsetInCU: 0x1EDD4, offset: 0x1EDD4, size: 0x8, addend: 0x0, symName: __ZNSt3__116reverse_iteratorIPNS_6vectorIfNS_9allocatorIfEEEEEC1B8ue170006ES5_, symObjAddr: 0x4060, symBinAddr: 0x1000048E0, symSize: 0x30 }
  - { offsetInCU: 0x1EE0C, offset: 0x1EE0C, size: 0x8, addend: 0x0, symName: __ZNSt3__116allocator_traitsINS_9allocatorINS_6vectorIfNS1_IfEEEEEEE7destroyB8ue170006IS4_vvEEvRS5_PT_, symObjAddr: 0x40D0, symBinAddr: 0x100004950, symSize: 0x20 }
  - { offsetInCU: 0x1EE46, offset: 0x1EE46, size: 0x8, addend: 0x0, symName: __ZNSt3__116reverse_iteratorIPNS_6vectorIfNS_9allocatorIfEEEEEppB8ue170006Ev, symObjAddr: 0x4110, symBinAddr: 0x100004990, symSize: 0x20 }
  - { offsetInCU: 0x1EE6C, offset: 0x1EE6C, size: 0x8, addend: 0x0, symName: __ZNKSt3__116reverse_iteratorIPNS_6vectorIfNS_9allocatorIfEEEEE4baseB8ue170006Ev, symObjAddr: 0x4130, symBinAddr: 0x1000049B0, symSize: 0x20 }
  - { offsetInCU: 0x1EE98, offset: 0x1EE98, size: 0x8, addend: 0x0, symName: __ZNSt3__119__to_address_helperINS_16reverse_iteratorIPNS_6vectorIfNS_9allocatorIfEEEEEEvE6__callB8ue170006ERKS7_, symObjAddr: 0x4190, symBinAddr: 0x100004A10, symSize: 0x40 }
  - { offsetInCU: 0x1EEBB, offset: 0x1EEBB, size: 0x8, addend: 0x0, symName: __ZNKSt3__116reverse_iteratorIPNS_6vectorIfNS_9allocatorIfEEEEEptB8ue170006Ev, symObjAddr: 0x41D0, symBinAddr: 0x100004A50, symSize: 0x30 }
  - { offsetInCU: 0x1EEE1, offset: 0x1EEE1, size: 0x8, addend: 0x0, symName: __ZNSt3__116reverse_iteratorIPNS_6vectorIfNS_9allocatorIfEEEEEC2B8ue170006ES5_, symObjAddr: 0x4290, symBinAddr: 0x100004B10, symSize: 0x30 }
  - { offsetInCU: 0x1EF19, offset: 0x1EF19, size: 0x8, addend: 0x0, symName: __ZNSt3__118__unwrap_iter_implIPNS_6vectorIfNS_9allocatorIfEEEELb1EE8__unwrapB8ue170006ES5_, symObjAddr: 0x42C0, symBinAddr: 0x100004B40, symSize: 0x20 }
  - { offsetInCU: 0x1EF3C, offset: 0x1EF3C, size: 0x8, addend: 0x0, symName: __ZNSt3__118__unwrap_iter_implIPNS_6vectorIfNS_9allocatorIfEEEELb1EE8__rewrapB8ue170006ES5_S5_, symObjAddr: 0x42E0, symBinAddr: 0x100004B60, symSize: 0x60 }
  - { offsetInCU: 0x1EF6D, offset: 0x1EF6D, size: 0x8, addend: 0x0, symName: __ZNSt3__16vectorINS0_IfNS_9allocatorIfEEEENS1_IS3_EEE21_ConstructTransactionD2B8ue170006Ev, symObjAddr: 0x4340, symBinAddr: 0x100004BC0, symSize: 0x20 }
  - { offsetInCU: 0x1EF97, offset: 0x1EF97, size: 0x8, addend: 0x0, symName: __ZNSt3__128__exception_guard_exceptionsINS_6vectorINS1_IfNS_9allocatorIfEEEENS2_IS4_EEE16__destroy_vectorEED2B8ue170006Ev, symObjAddr: 0x4360, symBinAddr: 0x100004BE0, symSize: 0x40 }
  - { offsetInCU: 0x1EFC1, offset: 0x1EFC1, size: 0x8, addend: 0x0, symName: __ZNSt3__16vectorINS0_IfNS_9allocatorIfEEEENS1_IS3_EEE16__destroy_vectorclB8ue170006Ev, symObjAddr: 0x43A0, symBinAddr: 0x100004C20, symSize: 0x80 }
  - { offsetInCU: 0x1EFE7, offset: 0x1EFE7, size: 0x8, addend: 0x0, symName: __ZNSt3__16vectorINS0_IfNS_9allocatorIfEEEENS1_IS3_EEE7__clearB8ue170006Ev, symObjAddr: 0x4420, symBinAddr: 0x100004CA0, symSize: 0x20 }
  - { offsetInCU: 0x1F00D, offset: 0x1F00D, size: 0x8, addend: 0x0, symName: __ZNKSt3__16vectorINS0_IfNS_9allocatorIfEEEENS1_IS3_EEE17__annotate_deleteB8ue170006Ev, symObjAddr: 0x4440, symBinAddr: 0x100004CC0, symSize: 0xB0 }
  - { offsetInCU: 0x1F033, offset: 0x1F033, size: 0x8, addend: 0x0, symName: __ZNSt3__116allocator_traitsINS_9allocatorINS_6vectorIfNS1_IfEEEEEEE10deallocateB8ue170006ERS5_PS4_m, symObjAddr: 0x44F0, symBinAddr: 0x100004D70, symSize: 0x30 }
  - { offsetInCU: 0x1F075, offset: 0x1F075, size: 0x8, addend: 0x0, symName: __ZNSt3__16vectorINS0_IfNS_9allocatorIfEEEENS1_IS3_EEE22__base_destruct_at_endB8ue170006EPS3_, symObjAddr: 0x4520, symBinAddr: 0x100004DA0, symSize: 0x80 }
  - { offsetInCU: 0x1F0B9, offset: 0x1F0B9, size: 0x8, addend: 0x0, symName: __ZNSt3__19allocatorINS_6vectorIfNS0_IfEEEEE10deallocateB8ue170006EPS3_m, symObjAddr: 0x45A0, symBinAddr: 0x100004E20, symSize: 0x50 }
  - { offsetInCU: 0x1F0FB, offset: 0x1F0FB, size: 0x8, addend: 0x0, symName: __ZNSt3__16vectorINS0_IfNS_9allocatorIfEEEENS1_IS3_EEED2B8ue170006Ev, symObjAddr: 0x45F0, symBinAddr: 0x100004E70, symSize: 0x40 }
  - { offsetInCU: 0x1F125, offset: 0x1F125, size: 0x8, addend: 0x0, symName: __ZNKSt3__111__wrap_iterIPfE4baseB8ue170006Ev, symObjAddr: 0x46A0, symBinAddr: 0x100004F20, symSize: 0x20 }
  - { offsetInCU: 0x1F14B, offset: 0x1F14B, size: 0x8, addend: 0x0, symName: __ZNSt3__16vectorIfNS_9allocatorIfEEE11__make_iterB8ue170006EPf, symObjAddr: 0x46C0, symBinAddr: 0x100004F40, symSize: 0x30 }
  - { offsetInCU: 0x1F180, offset: 0x1F180, size: 0x8, addend: 0x0, symName: __ZNSt3__111__wrap_iterIPfEC1B8ue170006ES1_, symObjAddr: 0x46F0, symBinAddr: 0x100004F70, symSize: 0x30 }
  - { offsetInCU: 0x1F1B8, offset: 0x1F1B8, size: 0x8, addend: 0x0, symName: __ZNSt3__111__wrap_iterIPfEC2B8ue170006ES1_, symObjAddr: 0x4720, symBinAddr: 0x100004FA0, symSize: 0x20 }
  - { offsetInCU: 0x1F1F0, offset: 0x1F1F0, size: 0x8, addend: 0x0, symName: __ZNSt3__111__wrap_iterIPfEppB8ue170006Ev, symObjAddr: 0x4870, symBinAddr: 0x1000050F0, symSize: 0x20 }
  - { offsetInCU: 0x1F21C, offset: 0x1F21C, size: 0x8, addend: 0x0, symName: __ZNKSt3__16__lessIvvEclB8ue170006IffEEbRKT_RKT0_, symObjAddr: 0x4890, symBinAddr: 0x100005110, symSize: 0x30 }
  - { offsetInCU: 0x1F270, offset: 0x1F270, size: 0x8, addend: 0x0, symName: __ZNKSt3__111__wrap_iterIPfEdeB8ue170006Ev, symObjAddr: 0x48C0, symBinAddr: 0x100005140, symSize: 0x20 }
  - { offsetInCU: 0x1F296, offset: 0x1F296, size: 0x8, addend: 0x0, symName: __ZNSt3__16vectorIfNS_9allocatorIfEEED2B8ue170006Ev, symObjAddr: 0x4920, symBinAddr: 0x1000051A0, symSize: 0x40 }
  - { offsetInCU: 0x1F2C0, offset: 0x1F2C0, size: 0x8, addend: 0x0, symName: __ZNSt3__112basic_stringIcNS_11char_traitsIcEENS_9allocatorIcEEEC2B8ue170006ILi0EEEPKc, symObjAddr: 0x4960, symBinAddr: 0x1000051E0, symSize: 0x50 }
  - { offsetInCU: 0x1F2FF, offset: 0x1F2FF, size: 0x8, addend: 0x0, symName: __ZNSt3__117__compressed_pairINS_12basic_stringIcNS_11char_traitsIcEENS_9allocatorIcEEE5__repES5_EC1B8ue170006INS_18__default_init_tagESA_EEOT_OT0_, symObjAddr: 0x49B0, symBinAddr: 0x100005230, symSize: 0x30 }
  - { offsetInCU: 0x1F357, offset: 0x1F357, size: 0x8, addend: 0x0, symName: __ZNSt3__111char_traitsIcE6lengthB8ue170006EPKc, symObjAddr: 0x49E0, symBinAddr: 0x100005260, symSize: 0x30 }
  - { offsetInCU: 0x1F37A, offset: 0x1F37A, size: 0x8, addend: 0x0, symName: __ZNSt3__117__compressed_pairINS_12basic_stringIcNS_11char_traitsIcEENS_9allocatorIcEEE5__repES5_EC2B8ue170006INS_18__default_init_tagESA_EEOT_OT0_, symObjAddr: 0x4A10, symBinAddr: 0x100005290, symSize: 0x30 }
  - { offsetInCU: 0x1F3D2, offset: 0x1F3D2, size: 0x8, addend: 0x0, symName: __ZNSt3__122__compressed_pair_elemINS_12basic_stringIcNS_11char_traitsIcEENS_9allocatorIcEEE5__repELi0ELb0EEC2B8ue170006ENS_18__default_init_tagE, symObjAddr: 0x4A40, symBinAddr: 0x1000052C0, symSize: 0x10 }
  - { offsetInCU: 0x1F406, offset: 0x1F406, size: 0x8, addend: 0x0, symName: __ZNSt3__122__compressed_pair_elemINS_9allocatorIcEELi1ELb1EEC2B8ue170006ENS_18__default_init_tagE, symObjAddr: 0x4A50, symBinAddr: 0x1000052D0, symSize: 0x20 }
  - { offsetInCU: 0x1F43A, offset: 0x1F43A, size: 0x8, addend: 0x0, symName: __ZNSt3__19allocatorIcEC2B8ue170006Ev, symObjAddr: 0x4A70, symBinAddr: 0x1000052F0, symSize: 0x20 }
  - { offsetInCU: 0x1F464, offset: 0x1F464, size: 0x8, addend: 0x0, symName: __ZNSt3__116__non_trivial_ifILb1ENS_9allocatorIcEEEC2B8ue170006Ev, symObjAddr: 0x4A90, symBinAddr: 0x100005310, symSize: 0x10 }
  - { offsetInCU: 0x1F48E, offset: 0x1F48E, size: 0x8, addend: 0x0, symName: __ZN9NeuralNetD2Ev, symObjAddr: 0x4AC0, symBinAddr: 0x100005340, symSize: 0x70 }
  - { offsetInCU: 0x1F4BA, offset: 0x1F4BA, size: 0x8, addend: 0x0, symName: __ZNSt3__16vectorINS0_INS0_IfNS_9allocatorIfEEEENS1_IS3_EEEENS1_IS5_EEED1B8ue170006Ev, symObjAddr: 0x4B30, symBinAddr: 0x1000053B0, symSize: 0x20 }
  - { offsetInCU: 0x1F4E4, offset: 0x1F4E4, size: 0x8, addend: 0x0, symName: __ZNSt3__16vectorINS0_INS0_IfNS_9allocatorIfEEEENS1_IS3_EEEENS1_IS5_EEED2B8ue170006Ev, symObjAddr: 0x4B50, symBinAddr: 0x1000053D0, symSize: 0x40 }
  - { offsetInCU: 0x1F50E, offset: 0x1F50E, size: 0x8, addend: 0x0, symName: __ZNSt3__16vectorINS0_INS0_IfNS_9allocatorIfEEEENS1_IS3_EEEENS1_IS5_EEE16__destroy_vectorC1B8ue170006ERS7_, symObjAddr: 0x4B90, symBinAddr: 0x100005410, symSize: 0x30 }
  - { offsetInCU: 0x1F547, offset: 0x1F547, size: 0x8, addend: 0x0, symName: __ZNSt3__16vectorINS0_INS0_IfNS_9allocatorIfEEEENS1_IS3_EEEENS1_IS5_EEE16__destroy_vectorclB8ue170006Ev, symObjAddr: 0x4BC0, symBinAddr: 0x100005440, symSize: 0x80 }
  - { offsetInCU: 0x1F56D, offset: 0x1F56D, size: 0x8, addend: 0x0, symName: __ZNSt3__16vectorINS0_INS0_IfNS_9allocatorIfEEEENS1_IS3_EEEENS1_IS5_EEE16__destroy_vectorC2B8ue170006ERS7_, symObjAddr: 0x4C40, symBinAddr: 0x1000054C0, symSize: 0x20 }
  - { offsetInCU: 0x1F5A6, offset: 0x1F5A6, size: 0x8, addend: 0x0, symName: __ZNSt3__16vectorINS0_INS0_IfNS_9allocatorIfEEEENS1_IS3_EEEENS1_IS5_EEE7__clearB8ue170006Ev, symObjAddr: 0x4C60, symBinAddr: 0x1000054E0, symSize: 0x20 }
  - { offsetInCU: 0x1F5CC, offset: 0x1F5CC, size: 0x8, addend: 0x0, symName: __ZNKSt3__16vectorINS0_INS0_IfNS_9allocatorIfEEEENS1_IS3_EEEENS1_IS5_EEE17__annotate_deleteB8ue170006Ev, symObjAddr: 0x4C80, symBinAddr: 0x100005500, symSize: 0xB0 }
  - { offsetInCU: 0x1F5F2, offset: 0x1F5F2, size: 0x8, addend: 0x0, symName: __ZNSt3__116allocator_traitsINS_9allocatorINS_6vectorINS2_IfNS1_IfEEEENS1_IS4_EEEEEEE10deallocateB8ue170006ERS7_PS6_m, symObjAddr: 0x4D30, symBinAddr: 0x1000055B0, symSize: 0x30 }
  - { offsetInCU: 0x1F634, offset: 0x1F634, size: 0x8, addend: 0x0, symName: __ZNSt3__16vectorINS0_INS0_IfNS_9allocatorIfEEEENS1_IS3_EEEENS1_IS5_EEE7__allocB8ue170006Ev, symObjAddr: 0x4D60, symBinAddr: 0x1000055E0, symSize: 0x20 }
  - { offsetInCU: 0x1F65A, offset: 0x1F65A, size: 0x8, addend: 0x0, symName: __ZNKSt3__16vectorINS0_INS0_IfNS_9allocatorIfEEEENS1_IS3_EEEENS1_IS5_EEE8capacityB8ue170006Ev, symObjAddr: 0x4D80, symBinAddr: 0x100005600, symSize: 0x40 }
  - { offsetInCU: 0x1F680, offset: 0x1F680, size: 0x8, addend: 0x0, symName: __ZNSt3__16vectorINS0_INS0_IfNS_9allocatorIfEEEENS1_IS3_EEEENS1_IS5_EEE22__base_destruct_at_endB8ue170006EPS5_, symObjAddr: 0x4DC0, symBinAddr: 0x100005640, symSize: 0x80 }
  - { offsetInCU: 0x1F6C4, offset: 0x1F6C4, size: 0x8, addend: 0x0, symName: __ZNSt3__116allocator_traitsINS_9allocatorINS_6vectorINS2_IfNS1_IfEEEENS1_IS4_EEEEEEE7destroyB8ue170006IS6_vvEEvRS7_PT_, symObjAddr: 0x4E40, symBinAddr: 0x1000056C0, symSize: 0x20 }
  - { offsetInCU: 0x1F6FE, offset: 0x1F6FE, size: 0x8, addend: 0x0, symName: __ZNKSt3__16vectorINS0_INS0_IfNS_9allocatorIfEEEENS1_IS3_EEEENS1_IS5_EEE31__annotate_contiguous_containerB8ue170006EPKvS9_S9_S9_, symObjAddr: 0x4EB0, symBinAddr: 0x100005730, symSize: 0x20 }
  - { offsetInCU: 0x1F750, offset: 0x1F750, size: 0x8, addend: 0x0, symName: __ZNKSt3__16vectorINS0_INS0_IfNS_9allocatorIfEEEENS1_IS3_EEEENS1_IS5_EEE4dataB8ue170006Ev, symObjAddr: 0x4ED0, symBinAddr: 0x100005750, symSize: 0x20 }
  - { offsetInCU: 0x1F776, offset: 0x1F776, size: 0x8, addend: 0x0, symName: __ZNKSt3__16vectorINS0_INS0_IfNS_9allocatorIfEEEENS1_IS3_EEEENS1_IS5_EEE4sizeB8ue170006Ev, symObjAddr: 0x4EF0, symBinAddr: 0x100005770, symSize: 0x30 }
  - { offsetInCU: 0x1F79C, offset: 0x1F79C, size: 0x8, addend: 0x0, symName: __ZNSt3__19allocatorINS_6vectorINS1_IfNS0_IfEEEENS0_IS3_EEEEE10deallocateB8ue170006EPS5_m, symObjAddr: 0x4F20, symBinAddr: 0x1000057A0, symSize: 0x50 }
  - { offsetInCU: 0x1F7DE, offset: 0x1F7DE, size: 0x8, addend: 0x0, symName: __ZNSt3__117__compressed_pairIPNS_6vectorINS1_IfNS_9allocatorIfEEEENS2_IS4_EEEENS2_IS6_EEE6secondB8ue170006Ev, symObjAddr: 0x4F70, symBinAddr: 0x1000057F0, symSize: 0x20 }
  - { offsetInCU: 0x1F804, offset: 0x1F804, size: 0x8, addend: 0x0, symName: __ZNSt3__122__compressed_pair_elemINS_9allocatorINS_6vectorINS2_IfNS1_IfEEEENS1_IS4_EEEEEELi1ELb1EE5__getB8ue170006Ev, symObjAddr: 0x4F90, symBinAddr: 0x100005810, symSize: 0x10 }
  - { offsetInCU: 0x1F82A, offset: 0x1F82A, size: 0x8, addend: 0x0, symName: __ZNKSt3__16vectorINS0_INS0_IfNS_9allocatorIfEEEENS1_IS3_EEEENS1_IS5_EEE9__end_capB8ue170006Ev, symObjAddr: 0x4FA0, symBinAddr: 0x100005820, symSize: 0x20 }
  - { offsetInCU: 0x1F850, offset: 0x1F850, size: 0x8, addend: 0x0, symName: __ZNKSt3__117__compressed_pairIPNS_6vectorINS1_IfNS_9allocatorIfEEEENS2_IS4_EEEENS2_IS6_EEE5firstB8ue170006Ev, symObjAddr: 0x4FC0, symBinAddr: 0x100005840, symSize: 0x20 }
  - { offsetInCU: 0x1F876, offset: 0x1F876, size: 0x8, addend: 0x0, symName: __ZNKSt3__122__compressed_pair_elemIPNS_6vectorINS1_IfNS_9allocatorIfEEEENS2_IS4_EEEELi0ELb0EE5__getB8ue170006Ev, symObjAddr: 0x4FE0, symBinAddr: 0x100005860, symSize: 0x10 }
  - { offsetInCU: 0x1F89C, offset: 0x1F89C, size: 0x8, addend: 0x0, symName: __ZNSt3__112basic_stringIcNS_11char_traitsIcEENS_9allocatorIcEEEC2B8ue170006Ev, symObjAddr: 0x4FF0, symBinAddr: 0x100005870, symSize: 0x50 }
  - { offsetInCU: 0x1F8C6, offset: 0x1F8C6, size: 0x8, addend: 0x0, symName: __ZNSt3__112basic_stringIcNS_11char_traitsIcEENS_9allocatorIcEEE14__default_initB8ue170006Ev, symObjAddr: 0x5040, symBinAddr: 0x1000058C0, symSize: 0x50 }
  - { offsetInCU: 0x1F8EC, offset: 0x1F8EC, size: 0x8, addend: 0x0, symName: __ZNSt3__117__compressed_pairINS_12basic_stringIcNS_11char_traitsIcEENS_9allocatorIcEEE5__repES5_E5firstB8ue170006Ev, symObjAddr: 0x5090, symBinAddr: 0x100005910, symSize: 0x20 }
  - { offsetInCU: 0x1F912, offset: 0x1F912, size: 0x8, addend: 0x0, symName: __ZNSt3__122__compressed_pair_elemINS_12basic_stringIcNS_11char_traitsIcEENS_9allocatorIcEEE5__repELi0ELb0EE5__getB8ue170006Ev, symObjAddr: 0x50B0, symBinAddr: 0x100005930, symSize: 0x10 }
  - { offsetInCU: 0x1F938, offset: 0x1F938, size: 0x8, addend: 0x0, symName: __ZNSt3__16vectorINS0_IfNS_9allocatorIfEEEENS1_IS3_EEE22__construct_one_at_endB8ue170006IJS3_EEEvDpOT_, symObjAddr: 0x50C0, symBinAddr: 0x100005940, symSize: 0x90 }
  - { offsetInCU: 0x1F987, offset: 0x1F987, size: 0x8, addend: 0x0, symName: __ZNSt3__16vectorINS0_IfNS_9allocatorIfEEEENS1_IS3_EEE21__push_back_slow_pathIS3_EEvOT_, symObjAddr: 0x5150, symBinAddr: 0x1000059D0, symSize: 0xD0 }
  - { offsetInCU: 0x1F9E5, offset: 0x1F9E5, size: 0x8, addend: 0x0, symName: __ZNSt3__116allocator_traitsINS_9allocatorINS_6vectorIfNS1_IfEEEEEEE9constructB8ue170006IS4_JS4_EvvEEvRS5_PT_DpOT0_, symObjAddr: 0x5220, symBinAddr: 0x100005AA0, symSize: 0x30 }
  - { offsetInCU: 0x1FA39, offset: 0x1FA39, size: 0x8, addend: 0x0, symName: __ZNSt3__16vectorIfNS_9allocatorIfEEEC1B8ue170006EOS3_, symObjAddr: 0x5290, symBinAddr: 0x100005B10, symSize: 0x30 }
  - { offsetInCU: 0x1FA74, offset: 0x1FA74, size: 0x8, addend: 0x0, symName: __ZNSt3__16vectorIfNS_9allocatorIfEEEC2B8ue170006EOS3_, symObjAddr: 0x52C0, symBinAddr: 0x100005B40, symSize: 0xD0 }
  - { offsetInCU: 0x1FAAF, offset: 0x1FAAF, size: 0x8, addend: 0x0, symName: __ZNKSt3__16vectorINS0_IfNS_9allocatorIfEEEENS1_IS3_EEE11__recommendB8ue170006Em, symObjAddr: 0x5390, symBinAddr: 0x100005C10, symSize: 0xA0 }
  - { offsetInCU: 0x1FB04, offset: 0x1FB04, size: 0x8, addend: 0x0, symName: __ZNSt3__114__split_bufferINS_6vectorIfNS_9allocatorIfEEEERNS2_IS4_EEEC1EmmS6_, symObjAddr: 0x5430, symBinAddr: 0x100005CB0, symSize: 0x40 }
  - { offsetInCU: 0x1FB5A, offset: 0x1FB5A, size: 0x8, addend: 0x0, symName: __ZNSt3__114__split_bufferINS_6vectorIfNS_9allocatorIfEEEERNS2_IS4_EEED1Ev, symObjAddr: 0x5590, symBinAddr: 0x100005E10, symSize: 0x20 }
  - { offsetInCU: 0x1FB86, offset: 0x1FB86, size: 0x8, addend: 0x0, symName: __ZNSt3__114__split_bufferINS_6vectorIfNS_9allocatorIfEEEERNS2_IS4_EEEC2EmmS6_, symObjAddr: 0x5630, symBinAddr: 0x100005EB0, symSize: 0xC0 }
  - { offsetInCU: 0x1FBF9, offset: 0x1FBF9, size: 0x8, addend: 0x0, symName: __ZNSt3__117__compressed_pairIPNS_6vectorIfNS_9allocatorIfEEEERNS2_IS4_EEEC1B8ue170006IDnS7_EEOT_OT0_, symObjAddr: 0x56F0, symBinAddr: 0x100005F70, symSize: 0x30 }
  - { offsetInCU: 0x1FC51, offset: 0x1FC51, size: 0x8, addend: 0x0, symName: __ZNSt3__114__split_bufferINS_6vectorIfNS_9allocatorIfEEEERNS2_IS4_EEE7__allocB8ue170006Ev, symObjAddr: 0x5720, symBinAddr: 0x100005FA0, symSize: 0x20 }
  - { offsetInCU: 0x1FC77, offset: 0x1FC77, size: 0x8, addend: 0x0, symName: __ZNSt3__114__split_bufferINS_6vectorIfNS_9allocatorIfEEEERNS2_IS4_EEE9__end_capB8ue170006Ev, symObjAddr: 0x5740, symBinAddr: 0x100005FC0, symSize: 0x20 }
  - { offsetInCU: 0x1FC9D, offset: 0x1FC9D, size: 0x8, addend: 0x0, symName: __ZNSt3__117__compressed_pairIPNS_6vectorIfNS_9allocatorIfEEEERNS2_IS4_EEEC2B8ue170006IDnS7_EEOT_OT0_, symObjAddr: 0x5760, symBinAddr: 0x100005FE0, symSize: 0x40 }
  - { offsetInCU: 0x1FCF5, offset: 0x1FCF5, size: 0x8, addend: 0x0, symName: __ZNSt3__122__compressed_pair_elemIRNS_9allocatorINS_6vectorIfNS1_IfEEEEEELi1ELb0EEC2B8ue170006IS6_vEEOT_, symObjAddr: 0x57A0, symBinAddr: 0x100006020, symSize: 0x20 }
  - { offsetInCU: 0x1FD37, offset: 0x1FD37, size: 0x8, addend: 0x0, symName: __ZNSt3__117__compressed_pairIPNS_6vectorIfNS_9allocatorIfEEEERNS2_IS4_EEE6secondB8ue170006Ev, symObjAddr: 0x57C0, symBinAddr: 0x100006040, symSize: 0x20 }
  - { offsetInCU: 0x1FD5D, offset: 0x1FD5D, size: 0x8, addend: 0x0, symName: __ZNSt3__122__compressed_pair_elemIRNS_9allocatorINS_6vectorIfNS1_IfEEEEEELi1ELb0EE5__getB8ue170006Ev, symObjAddr: 0x57E0, symBinAddr: 0x100006060, symSize: 0x20 }
  - { offsetInCU: 0x1FD83, offset: 0x1FD83, size: 0x8, addend: 0x0, symName: __ZNSt3__117__compressed_pairIPNS_6vectorIfNS_9allocatorIfEEEERNS2_IS4_EEE5firstB8ue170006Ev, symObjAddr: 0x5800, symBinAddr: 0x100006080, symSize: 0x20 }
  - { offsetInCU: 0x1FDA9, offset: 0x1FDA9, size: 0x8, addend: 0x0, symName: __ZNSt3__129_AllocatorDestroyRangeReverseINS_9allocatorINS_6vectorIfNS1_IfEEEEEENS_16reverse_iteratorIPS4_EEEC1B8ue170006ERS5_RS8_SB_, symObjAddr: 0x5A40, symBinAddr: 0x1000062C0, symSize: 0x40 }
  - { offsetInCU: 0x1FE00, offset: 0x1FE00, size: 0x8, addend: 0x0, symName: __ZNKSt3__116reverse_iteratorIPNS_6vectorIfNS_9allocatorIfEEEEEdeB8ue170006Ev, symObjAddr: 0x5A80, symBinAddr: 0x100006300, symSize: 0x30 }
  - { offsetInCU: 0x1FE34, offset: 0x1FE34, size: 0x8, addend: 0x0, symName: __ZNSt3__128__exception_guard_exceptionsINS_29_AllocatorDestroyRangeReverseINS_9allocatorINS_6vectorIfNS2_IfEEEEEENS_16reverse_iteratorIPS5_EEEEE10__completeB8ue170006Ev, symObjAddr: 0x5AB0, symBinAddr: 0x100006330, symSize: 0x20 }
  - { offsetInCU: 0x1FE5A, offset: 0x1FE5A, size: 0x8, addend: 0x0, symName: __ZNSt3__128__exception_guard_exceptionsINS_29_AllocatorDestroyRangeReverseINS_9allocatorINS_6vectorIfNS2_IfEEEEEENS_16reverse_iteratorIPS5_EEEEED1B8ue170006Ev, symObjAddr: 0x5AD0, symBinAddr: 0x100006350, symSize: 0x20 }
  - { offsetInCU: 0x1FE84, offset: 0x1FE84, size: 0x8, addend: 0x0, symName: __ZNSt3__128__exception_guard_exceptionsINS_29_AllocatorDestroyRangeReverseINS_9allocatorINS_6vectorIfNS2_IfEEEEEENS_16reverse_iteratorIPS5_EEEEEC1B8ue170006ESA_, symObjAddr: 0x5AF0, symBinAddr: 0x100006370, symSize: 0x40 }
  - { offsetInCU: 0x1FEBC, offset: 0x1FEBC, size: 0x8, addend: 0x0, symName: __ZNSt3__128__exception_guard_exceptionsINS_29_AllocatorDestroyRangeReverseINS_9allocatorINS_6vectorIfNS2_IfEEEEEENS_16reverse_iteratorIPS5_EEEEEC2B8ue170006ESA_, symObjAddr: 0x5B30, symBinAddr: 0x1000063B0, symSize: 0x30 }
  - { offsetInCU: 0x1FEF4, offset: 0x1FEF4, size: 0x8, addend: 0x0, symName: __ZNSt3__129_AllocatorDestroyRangeReverseINS_9allocatorINS_6vectorIfNS1_IfEEEEEENS_16reverse_iteratorIPS4_EEEC2B8ue170006ERS5_RS8_SB_, symObjAddr: 0x5B60, symBinAddr: 0x1000063E0, symSize: 0x40 }
  - { offsetInCU: 0x1FF4B, offset: 0x1FF4B, size: 0x8, addend: 0x0, symName: __ZNSt3__128__exception_guard_exceptionsINS_29_AllocatorDestroyRangeReverseINS_9allocatorINS_6vectorIfNS2_IfEEEEEENS_16reverse_iteratorIPS5_EEEEED2B8ue170006Ev, symObjAddr: 0x5BA0, symBinAddr: 0x100006420, symSize: 0x40 }
  - { offsetInCU: 0x1FF75, offset: 0x1FF75, size: 0x8, addend: 0x0, symName: __ZNKSt3__129_AllocatorDestroyRangeReverseINS_9allocatorINS_6vectorIfNS1_IfEEEEEENS_16reverse_iteratorIPS4_EEEclB8ue170006Ev, symObjAddr: 0x5BE0, symBinAddr: 0x100006460, symSize: 0xF0 }
  - { offsetInCU: 0x1FF9C, offset: 0x1FF9C, size: 0x8, addend: 0x0, symName: __ZNSt3__116reverse_iteratorINS0_IPNS_6vectorIfNS_9allocatorIfEEEEEEEC1B8ue170006ES6_, symObjAddr: 0x5D40, symBinAddr: 0x1000065C0, symSize: 0x30 }
  - { offsetInCU: 0x1FFD4, offset: 0x1FFD4, size: 0x8, addend: 0x0, symName: __ZNSt3__116reverse_iteratorINS0_IPNS_6vectorIfNS_9allocatorIfEEEEEEEppB8ue170006Ev, symObjAddr: 0x5DE0, symBinAddr: 0x100006660, symSize: 0x30 }
  - { offsetInCU: 0x1FFFA, offset: 0x1FFFA, size: 0x8, addend: 0x0, symName: __ZNKSt3__116reverse_iteratorINS0_IPNS_6vectorIfNS_9allocatorIfEEEEEEE4baseB8ue170006Ev, symObjAddr: 0x5E10, symBinAddr: 0x100006690, symSize: 0x20 }
  - { offsetInCU: 0x20026, offset: 0x20026, size: 0x8, addend: 0x0, symName: __ZNSt3__119__to_address_helperINS_16reverse_iteratorINS1_IPNS_6vectorIfNS_9allocatorIfEEEEEEEEvE6__callB8ue170006ERKS8_, symObjAddr: 0x5E30, symBinAddr: 0x1000066B0, symSize: 0x40 }
  - { offsetInCU: 0x20049, offset: 0x20049, size: 0x8, addend: 0x0, symName: __ZNKSt3__116reverse_iteratorINS0_IPNS_6vectorIfNS_9allocatorIfEEEEEEEptB8ue170006Ev, symObjAddr: 0x5E70, symBinAddr: 0x1000066F0, symSize: 0x50 }
  - { offsetInCU: 0x2006F, offset: 0x2006F, size: 0x8, addend: 0x0, symName: __ZNSt3__116reverse_iteratorIPNS_6vectorIfNS_9allocatorIfEEEEEpLB8ue170006El, symObjAddr: 0x5F60, symBinAddr: 0x1000067E0, symSize: 0x30 }
  - { offsetInCU: 0x200A3, offset: 0x200A3, size: 0x8, addend: 0x0, symName: __ZNSt3__116reverse_iteratorIPNS_6vectorIfNS_9allocatorIfEEEEEmmB8ue170006Ev, symObjAddr: 0x5F90, symBinAddr: 0x100006810, symSize: 0x20 }
  - { offsetInCU: 0x200C9, offset: 0x200C9, size: 0x8, addend: 0x0, symName: __ZNSt3__116reverse_iteratorINS0_IPNS_6vectorIfNS_9allocatorIfEEEEEEEC2B8ue170006ES6_, symObjAddr: 0x5FB0, symBinAddr: 0x100006830, symSize: 0x40 }
  - { offsetInCU: 0x20101, offset: 0x20101, size: 0x8, addend: 0x0, symName: __ZNSt3__114__split_bufferINS_6vectorIfNS_9allocatorIfEEEERNS2_IS4_EEED2Ev, symObjAddr: 0x5FF0, symBinAddr: 0x100006870, symSize: 0x70 }
  - { offsetInCU: 0x2012D, offset: 0x2012D, size: 0x8, addend: 0x0, symName: __ZNSt3__114__split_bufferINS_6vectorIfNS_9allocatorIfEEEERNS2_IS4_EEE5clearB8ue170006Ev, symObjAddr: 0x6060, symBinAddr: 0x1000068E0, symSize: 0x20 }
  - { offsetInCU: 0x20153, offset: 0x20153, size: 0x8, addend: 0x0, symName: __ZNKSt3__114__split_bufferINS_6vectorIfNS_9allocatorIfEEEERNS2_IS4_EEE8capacityB8ue170006Ev, symObjAddr: 0x6080, symBinAddr: 0x100006900, symSize: 0x40 }
  - { offsetInCU: 0x20179, offset: 0x20179, size: 0x8, addend: 0x0, symName: __ZNSt3__114__split_bufferINS_6vectorIfNS_9allocatorIfEEEERNS2_IS4_EEE17__destruct_at_endB8ue170006EPS4_, symObjAddr: 0x60C0, symBinAddr: 0x100006940, symSize: 0x30 }
  - { offsetInCU: 0x201AD, offset: 0x201AD, size: 0x8, addend: 0x0, symName: __ZNSt3__114__split_bufferINS_6vectorIfNS_9allocatorIfEEEERNS2_IS4_EEE17__destruct_at_endB8ue170006EPS4_NS_17integral_constantIbLb0EEE, symObjAddr: 0x60F0, symBinAddr: 0x100006970, symSize: 0x80 }
  - { offsetInCU: 0x201ED, offset: 0x201ED, size: 0x8, addend: 0x0, symName: __ZNKSt3__114__split_bufferINS_6vectorIfNS_9allocatorIfEEEERNS2_IS4_EEE9__end_capB8ue170006Ev, symObjAddr: 0x6170, symBinAddr: 0x1000069F0, symSize: 0x20 }
  - { offsetInCU: 0x20213, offset: 0x20213, size: 0x8, addend: 0x0, symName: __ZNKSt3__117__compressed_pairIPNS_6vectorIfNS_9allocatorIfEEEERNS2_IS4_EEE5firstB8ue170006Ev, symObjAddr: 0x6190, symBinAddr: 0x100006A10, symSize: 0x20 }
  - { offsetInCU: 0x20239, offset: 0x20239, size: 0x8, addend: 0x0, symName: __ZNSt3__16vectorIfNS_9allocatorIfEEEC2B8ue170006Ev, symObjAddr: 0x61B0, symBinAddr: 0x100006A30, symSize: 0x50 }
  - { offsetInCU: 0x20263, offset: 0x20263, size: 0x8, addend: 0x0, symName: __ZNSt3__117__compressed_pairIPfNS_9allocatorIfEEEC1B8ue170006IDnNS_18__default_init_tagEEEOT_OT0_, symObjAddr: 0x6200, symBinAddr: 0x100006A80, symSize: 0x30 }
  - { offsetInCU: 0x202BB, offset: 0x202BB, size: 0x8, addend: 0x0, symName: __ZNSt3__117__compressed_pairIPfNS_9allocatorIfEEEC2B8ue170006IDnNS_18__default_init_tagEEEOT_OT0_, symObjAddr: 0x6230, symBinAddr: 0x100006AB0, symSize: 0x40 }
  - { offsetInCU: 0x20313, offset: 0x20313, size: 0x8, addend: 0x0, symName: __ZNSt3__122__compressed_pair_elemINS_9allocatorIfEELi1ELb1EEC2B8ue170006ENS_18__default_init_tagE, symObjAddr: 0x6270, symBinAddr: 0x100006AF0, symSize: 0x20 }
  - { offsetInCU: 0x20347, offset: 0x20347, size: 0x8, addend: 0x0, symName: __ZNSt3__19allocatorIfEC2B8ue170006Ev, symObjAddr: 0x6290, symBinAddr: 0x100006B10, symSize: 0x20 }
  - { offsetInCU: 0x20371, offset: 0x20371, size: 0x8, addend: 0x0, symName: __ZNSt3__116__non_trivial_ifILb1ENS_9allocatorIfEEEC2B8ue170006Ev, symObjAddr: 0x62B0, symBinAddr: 0x100006B30, symSize: 0x10 }
  - { offsetInCU: 0x2039B, offset: 0x2039B, size: 0x8, addend: 0x0, symName: __ZNKSt3__112basic_stringIcNS_11char_traitsIcEENS_9allocatorIcEEE4sizeB8ue170006Ev, symObjAddr: 0x62C0, symBinAddr: 0x100006B40, symSize: 0x50 }
  - { offsetInCU: 0x203C1, offset: 0x203C1, size: 0x8, addend: 0x0, symName: __ZNKSt3__112basic_stringIcNS_11char_traitsIcEENS_9allocatorIcEEE9__is_longB8ue170006Ev, symObjAddr: 0x6310, symBinAddr: 0x100006B90, symSize: 0x30 }
  - { offsetInCU: 0x203E7, offset: 0x203E7, size: 0x8, addend: 0x0, symName: __ZNKSt3__112basic_stringIcNS_11char_traitsIcEENS_9allocatorIcEEE15__get_long_sizeB8ue170006Ev, symObjAddr: 0x6340, symBinAddr: 0x100006BC0, symSize: 0x20 }
  - { offsetInCU: 0x2040D, offset: 0x2040D, size: 0x8, addend: 0x0, symName: __ZNKSt3__112basic_stringIcNS_11char_traitsIcEENS_9allocatorIcEEE16__get_short_sizeB8ue170006Ev, symObjAddr: 0x6360, symBinAddr: 0x100006BE0, symSize: 0x30 }
  - { offsetInCU: 0x20433, offset: 0x20433, size: 0x8, addend: 0x0, symName: __ZNKSt3__117__compressed_pairINS_12basic_stringIcNS_11char_traitsIcEENS_9allocatorIcEEE5__repES5_E5firstB8ue170006Ev, symObjAddr: 0x6390, symBinAddr: 0x100006C10, symSize: 0x20 }
  - { offsetInCU: 0x20459, offset: 0x20459, size: 0x8, addend: 0x0, symName: __ZNKSt3__122__compressed_pair_elemINS_12basic_stringIcNS_11char_traitsIcEENS_9allocatorIcEEE5__repELi0ELb0EE5__getB8ue170006Ev, symObjAddr: 0x63B0, symBinAddr: 0x100006C30, symSize: 0x10 }
  - { offsetInCU: 0x20485, offset: 0x20485, size: 0x8, addend: 0x0, symName: __ZNSt3__16vectorIfNS_9allocatorIfEEE22__construct_one_at_endB8ue170006IJfEEEvDpOT_, symObjAddr: 0x63C0, symBinAddr: 0x100006C40, symSize: 0x90 }
  - { offsetInCU: 0x204D4, offset: 0x204D4, size: 0x8, addend: 0x0, symName: __ZNSt3__16vectorIfNS_9allocatorIfEEE21__push_back_slow_pathIfEEvOT_, symObjAddr: 0x6450, symBinAddr: 0x100006CD0, symSize: 0xD0 }
  - { offsetInCU: 0x20532, offset: 0x20532, size: 0x8, addend: 0x0, symName: __ZNSt3__116allocator_traitsINS_9allocatorIfEEE9constructB8ue170006IfJfEvvEEvRS2_PT_DpOT0_, symObjAddr: 0x6520, symBinAddr: 0x100006DA0, symSize: 0x30 }
  - { offsetInCU: 0x20586, offset: 0x20586, size: 0x8, addend: 0x0, symName: __ZNKSt3__16vectorIfNS_9allocatorIfEEE11__recommendB8ue170006Em, symObjAddr: 0x6580, symBinAddr: 0x100006E00, symSize: 0xA0 }
  - { offsetInCU: 0x205DB, offset: 0x205DB, size: 0x8, addend: 0x0, symName: __ZNSt3__114__split_bufferIfRNS_9allocatorIfEEEC1EmmS3_, symObjAddr: 0x6620, symBinAddr: 0x100006EA0, symSize: 0x40 }
  - { offsetInCU: 0x20631, offset: 0x20631, size: 0x8, addend: 0x0, symName: __ZNSt3__114__split_bufferIfRNS_9allocatorIfEEED1Ev, symObjAddr: 0x6780, symBinAddr: 0x100007000, symSize: 0x20 }
  - { offsetInCU: 0x2065D, offset: 0x2065D, size: 0x8, addend: 0x0, symName: __ZNSt3__114__split_bufferIfRNS_9allocatorIfEEEC2EmmS3_, symObjAddr: 0x67A0, symBinAddr: 0x100007020, symSize: 0xD0 }
  - { offsetInCU: 0x206D0, offset: 0x206D0, size: 0x8, addend: 0x0, symName: __ZNSt3__117__compressed_pairIPfRNS_9allocatorIfEEEC1B8ue170006IDnS4_EEOT_OT0_, symObjAddr: 0x6870, symBinAddr: 0x1000070F0, symSize: 0x30 }
  - { offsetInCU: 0x20728, offset: 0x20728, size: 0x8, addend: 0x0, symName: __ZNSt3__114__split_bufferIfRNS_9allocatorIfEEE7__allocB8ue170006Ev, symObjAddr: 0x68A0, symBinAddr: 0x100007120, symSize: 0x20 }
  - { offsetInCU: 0x2074E, offset: 0x2074E, size: 0x8, addend: 0x0, symName: __ZNSt3__114__split_bufferIfRNS_9allocatorIfEEE9__end_capB8ue170006Ev, symObjAddr: 0x68C0, symBinAddr: 0x100007140, symSize: 0x20 }
  - { offsetInCU: 0x20774, offset: 0x20774, size: 0x8, addend: 0x0, symName: __ZNSt3__117__compressed_pairIPfRNS_9allocatorIfEEEC2B8ue170006IDnS4_EEOT_OT0_, symObjAddr: 0x68E0, symBinAddr: 0x100007160, symSize: 0x40 }
  - { offsetInCU: 0x207CC, offset: 0x207CC, size: 0x8, addend: 0x0, symName: __ZNSt3__122__compressed_pair_elemIRNS_9allocatorIfEELi1ELb0EEC2B8ue170006IS3_vEEOT_, symObjAddr: 0x6920, symBinAddr: 0x1000071A0, symSize: 0x20 }
  - { offsetInCU: 0x2080E, offset: 0x2080E, size: 0x8, addend: 0x0, symName: __ZNSt3__117__compressed_pairIPfRNS_9allocatorIfEEE6secondB8ue170006Ev, symObjAddr: 0x6940, symBinAddr: 0x1000071C0, symSize: 0x20 }
  - { offsetInCU: 0x20834, offset: 0x20834, size: 0x8, addend: 0x0, symName: __ZNSt3__122__compressed_pair_elemIRNS_9allocatorIfEELi1ELb0EE5__getB8ue170006Ev, symObjAddr: 0x6960, symBinAddr: 0x1000071E0, symSize: 0x20 }
  - { offsetInCU: 0x2085A, offset: 0x2085A, size: 0x8, addend: 0x0, symName: __ZNSt3__117__compressed_pairIPfRNS_9allocatorIfEEE5firstB8ue170006Ev, symObjAddr: 0x6980, symBinAddr: 0x100007200, symSize: 0x20 }
  - { offsetInCU: 0x20880, offset: 0x20880, size: 0x8, addend: 0x0, symName: __ZNSt3__116reverse_iteratorIPfEC1B8ue170006ES1_, symObjAddr: 0x6A10, symBinAddr: 0x100007290, symSize: 0x30 }
  - { offsetInCU: 0x208B8, offset: 0x208B8, size: 0x8, addend: 0x0, symName: __ZNKSt3__116reverse_iteratorIPfE4baseB8ue170006Ev, symObjAddr: 0x6A40, symBinAddr: 0x1000072C0, symSize: 0x20 }
  - { offsetInCU: 0x20909, offset: 0x20909, size: 0x8, addend: 0x0, symName: __ZNKSt3__111__move_loopINS_17_ClassicAlgPolicyEEclB8ue170006INS_16reverse_iteratorIPfEES6_S6_EENS_4pairIT_T1_EES8_T0_S9_, symObjAddr: 0x6EB0, symBinAddr: 0x100007730, symSize: 0xA0 }
  - { offsetInCU: 0x20974, offset: 0x20974, size: 0x8, addend: 0x0, symName: __ZNSt3__119__unwrap_range_implINS_16reverse_iteratorIPfEES3_E8__unwrapB8ue170006ES3_S3_, symObjAddr: 0x7090, symBinAddr: 0x100007910, symSize: 0x90 }
  - { offsetInCU: 0x209AB, offset: 0x209AB, size: 0x8, addend: 0x0, symName: __ZNSt3__14pairINS_16reverse_iteratorIPfEES3_EC1B8ue170006IS3_S3_LPv0EEEOT_OT0_, symObjAddr: 0x7120, symBinAddr: 0x1000079A0, symSize: 0x30 }
  - { offsetInCU: 0x20A09, offset: 0x20A09, size: 0x8, addend: 0x0, symName: __ZNSt3__14pairINS_16reverse_iteratorIPfEES3_EC2B8ue170006IS3_S3_LPv0EEEOT_OT0_, symObjAddr: 0x7150, symBinAddr: 0x1000079D0, symSize: 0x40 }
  - { offsetInCU: 0x20A67, offset: 0x20A67, size: 0x8, addend: 0x0, symName: __ZNSt3__18_IterOpsINS_17_ClassicAlgPolicyEE11__iter_moveB8ue170006IRNS_16reverse_iteratorIPfEEEENS_9enable_ifIXsr12is_referenceIDTdeclsr3stdE7declvalIRT_EEEEE5valueEDTclsr3stdE4movedeclsr3stdE7declvalISA_EEEEE4typeEOS9_, symObjAddr: 0x71D0, symBinAddr: 0x100007A50, symSize: 0x20 }
  - { offsetInCU: 0x20A93, offset: 0x20A93, size: 0x8, addend: 0x0, symName: __ZNKSt3__116reverse_iteratorIPfEdeB8ue170006Ev, symObjAddr: 0x71F0, symBinAddr: 0x100007A70, symSize: 0x30 }
  - { offsetInCU: 0x20AC7, offset: 0x20AC7, size: 0x8, addend: 0x0, symName: __ZNSt3__116reverse_iteratorIPfEppB8ue170006Ev, symObjAddr: 0x7220, symBinAddr: 0x100007AA0, symSize: 0x20 }
  - { offsetInCU: 0x20AED, offset: 0x20AED, size: 0x8, addend: 0x0, symName: __ZNSt3__18_IterOpsINS_17_ClassicAlgPolicyEE25__validate_iter_referenceB8ue170006IRNS_16reverse_iteratorIPfEEEEvv, symObjAddr: 0x7240, symBinAddr: 0x100007AC0, symSize: 0x10 }
  - { offsetInCU: 0x20B0B, offset: 0x20B0B, size: 0x8, addend: 0x0, symName: __ZNSt3__118__unwrap_iter_implINS_16reverse_iteratorIPfEELb0EE8__unwrapB8ue170006ES3_, symObjAddr: 0x7250, symBinAddr: 0x100007AD0, symSize: 0x20 }
  - { offsetInCU: 0x20B2E, offset: 0x20B2E, size: 0x8, addend: 0x0, symName: __ZNSt3__119__unwrap_range_implINS_16reverse_iteratorIPfEES3_E8__rewrapB8ue170006ES3_S3_, symObjAddr: 0x7270, symBinAddr: 0x100007AF0, symSize: 0x60 }
  - { offsetInCU: 0x20B5F, offset: 0x20B5F, size: 0x8, addend: 0x0, symName: __ZNSt3__118__unwrap_iter_implINS_16reverse_iteratorIPfEELb0EE8__rewrapB8ue170006ES3_S3_, symObjAddr: 0x72D0, symBinAddr: 0x100007B50, symSize: 0x30 }
  - { offsetInCU: 0x20B8C, offset: 0x20B8C, size: 0x8, addend: 0x0, symName: __ZNSt3__116reverse_iteratorIPfEC2B8ue170006ES1_, symObjAddr: 0x7300, symBinAddr: 0x100007B80, symSize: 0x30 }
  - { offsetInCU: 0x20BC4, offset: 0x20BC4, size: 0x8, addend: 0x0, symName: __ZNSt3__114__split_bufferIfRNS_9allocatorIfEEED2Ev, symObjAddr: 0x7330, symBinAddr: 0x100007BB0, symSize: 0x70 }
  - { offsetInCU: 0x20BF0, offset: 0x20BF0, size: 0x8, addend: 0x0, symName: __ZNSt3__114__split_bufferIfRNS_9allocatorIfEEE5clearB8ue170006Ev, symObjAddr: 0x73A0, symBinAddr: 0x100007C20, symSize: 0x20 }
  - { offsetInCU: 0x20C16, offset: 0x20C16, size: 0x8, addend: 0x0, symName: __ZNKSt3__114__split_bufferIfRNS_9allocatorIfEEE8capacityB8ue170006Ev, symObjAddr: 0x73C0, symBinAddr: 0x100007C40, symSize: 0x30 }
  - { offsetInCU: 0x20C3C, offset: 0x20C3C, size: 0x8, addend: 0x0, symName: __ZNSt3__114__split_bufferIfRNS_9allocatorIfEEE17__destruct_at_endB8ue170006EPf, symObjAddr: 0x73F0, symBinAddr: 0x100007C70, symSize: 0x30 }
  - { offsetInCU: 0x20C70, offset: 0x20C70, size: 0x8, addend: 0x0, symName: __ZNSt3__114__split_bufferIfRNS_9allocatorIfEEE17__destruct_at_endB8ue170006EPfNS_17integral_constantIbLb0EEE, symObjAddr: 0x7420, symBinAddr: 0x100007CA0, symSize: 0x80 }
  - { offsetInCU: 0x20CB0, offset: 0x20CB0, size: 0x8, addend: 0x0, symName: __ZNKSt3__114__split_bufferIfRNS_9allocatorIfEEE9__end_capB8ue170006Ev, symObjAddr: 0x74A0, symBinAddr: 0x100007D20, symSize: 0x20 }
  - { offsetInCU: 0x20CD6, offset: 0x20CD6, size: 0x8, addend: 0x0, symName: __ZNKSt3__117__compressed_pairIPfRNS_9allocatorIfEEE5firstB8ue170006Ev, symObjAddr: 0x74C0, symBinAddr: 0x100007D40, symSize: 0x20 }
  - { offsetInCU: 0x20CFC, offset: 0x20CFC, size: 0x8, addend: 0x0, symName: __ZNKSt3__112basic_stringIcNS_11char_traitsIcEENS_9allocatorIcEEEcvNS_17basic_string_viewIcS2_EEB8ue170006Ev, symObjAddr: 0x7570, symBinAddr: 0x100007DF0, symSize: 0x50 }
  - { offsetInCU: 0x20D22, offset: 0x20D22, size: 0x8, addend: 0x0, symName: __ZNSt3__117basic_string_viewIcNS_11char_traitsIcEEEC1B8ue170006EPKc, symObjAddr: 0x75C0, symBinAddr: 0x100007E40, symSize: 0x30 }
  - { offsetInCU: 0x20D5B, offset: 0x20D5B, size: 0x8, addend: 0x0, symName: __ZNKSt3__117basic_string_viewIcNS_11char_traitsIcEEE4sizeB8ue170006Ev, symObjAddr: 0x75F0, symBinAddr: 0x100007E70, symSize: 0x20 }
  - { offsetInCU: 0x20D81, offset: 0x20D81, size: 0x8, addend: 0x0, symName: __ZNKSt3__117basic_string_viewIcNS_11char_traitsIcEEE7compareES3_, symObjAddr: 0x7610, symBinAddr: 0x100007E90, symSize: 0x100 }
  - { offsetInCU: 0x20DD4, offset: 0x20DD4, size: 0x8, addend: 0x0, symName: __ZNSt3__111char_traitsIcE7compareB8ue170006EPKcS3_m, symObjAddr: 0x7710, symBinAddr: 0x100007F90, symSize: 0x30 }
  - { offsetInCU: 0x20E13, offset: 0x20E13, size: 0x8, addend: 0x0, symName: __ZNKSt3__117basic_string_viewIcNS_11char_traitsIcEEE4dataB8ue170006Ev, symObjAddr: 0x7740, symBinAddr: 0x100007FC0, symSize: 0x20 }
  - { offsetInCU: 0x20E39, offset: 0x20E39, size: 0x8, addend: 0x0, symName: __ZNKSt3__112basic_stringIcNS_11char_traitsIcEENS_9allocatorIcEEE4dataB8ue170006Ev, symObjAddr: 0x7760, symBinAddr: 0x100007FE0, symSize: 0x30 }
  - { offsetInCU: 0x20E5F, offset: 0x20E5F, size: 0x8, addend: 0x0, symName: __ZNSt3__117basic_string_viewIcNS_11char_traitsIcEEEC1B8ue170006EPKcm, symObjAddr: 0x7790, symBinAddr: 0x100008010, symSize: 0x30 }
  - { offsetInCU: 0x20EA7, offset: 0x20EA7, size: 0x8, addend: 0x0, symName: __ZNKSt3__112basic_stringIcNS_11char_traitsIcEENS_9allocatorIcEEE13__get_pointerB8ue170006Ev, symObjAddr: 0x77D0, symBinAddr: 0x100008050, symSize: 0x50 }
  - { offsetInCU: 0x20ECD, offset: 0x20ECD, size: 0x8, addend: 0x0, symName: __ZNKSt3__112basic_stringIcNS_11char_traitsIcEENS_9allocatorIcEEE18__get_long_pointerB8ue170006Ev, symObjAddr: 0x7820, symBinAddr: 0x1000080A0, symSize: 0x20 }
  - { offsetInCU: 0x20EF3, offset: 0x20EF3, size: 0x8, addend: 0x0, symName: __ZNKSt3__112basic_stringIcNS_11char_traitsIcEENS_9allocatorIcEEE19__get_short_pointerB8ue170006Ev, symObjAddr: 0x7840, symBinAddr: 0x1000080C0, symSize: 0x30 }
  - { offsetInCU: 0x20F19, offset: 0x20F19, size: 0x8, addend: 0x0, symName: __ZNSt3__114pointer_traitsIPKcE10pointer_toB8ue170006ERS1_, symObjAddr: 0x7870, symBinAddr: 0x1000080F0, symSize: 0x10 }
  - { offsetInCU: 0x20F3C, offset: 0x20F3C, size: 0x8, addend: 0x0, symName: __ZNSt3__117basic_string_viewIcNS_11char_traitsIcEEEC2B8ue170006EPKcm, symObjAddr: 0x7880, symBinAddr: 0x100008100, symSize: 0x30 }
  - { offsetInCU: 0x20F84, offset: 0x20F84, size: 0x8, addend: 0x0, symName: __ZNSt3__117basic_string_viewIcNS_11char_traitsIcEEEC2B8ue170006EPKc, symObjAddr: 0x78B0, symBinAddr: 0x100008130, symSize: 0x40 }
  - { offsetInCU: 0x20FBD, offset: 0x20FBD, size: 0x8, addend: 0x0, symName: __ZNSt3__16vectorIfNS_9allocatorIfEEEC2B8ue170006ESt16initializer_listIfE, symObjAddr: 0x7910, symBinAddr: 0x100008190, symSize: 0x110 }
  - { offsetInCU: 0x2100D, offset: 0x2100D, size: 0x8, addend: 0x0, symName: __ZNKSt16initializer_listIfE4sizeB8ue170006Ev, symObjAddr: 0x7A20, symBinAddr: 0x1000082A0, symSize: 0x20 }
  - { offsetInCU: 0x21033, offset: 0x21033, size: 0x8, addend: 0x0, symName: __ZNSt3__16vectorIfNS_9allocatorIfEEE18__construct_at_endIPKfS6_EEvT_T0_m, symObjAddr: 0x7A40, symBinAddr: 0x1000082C0, symSize: 0x90 }
  - { offsetInCU: 0x210A9, offset: 0x210A9, size: 0x8, addend: 0x0, symName: __ZNKSt16initializer_listIfE5beginB8ue170006Ev, symObjAddr: 0x7AD0, symBinAddr: 0x100008350, symSize: 0x20 }
  - { offsetInCU: 0x210CF, offset: 0x210CF, size: 0x8, addend: 0x0, symName: __ZNKSt16initializer_listIfE3endB8ue170006Ev, symObjAddr: 0x7AF0, symBinAddr: 0x100008370, symSize: 0x20 }
  - { offsetInCU: 0x21116, offset: 0x21116, size: 0x8, addend: 0x0, symName: __ZNSt3__119__unwrap_range_implIPKfS2_E8__unwrapB8ue170006ES2_S2_, symObjAddr: 0x7C00, symBinAddr: 0x100008480, symSize: 0x50 }
  - { offsetInCU: 0x2114D, offset: 0x2114D, size: 0x8, addend: 0x0, symName: __ZNSt3__14pairIPKfS2_EC1B8ue170006IS2_S2_LPv0EEEOT_OT0_, symObjAddr: 0x7C70, symBinAddr: 0x1000084F0, symSize: 0x30 }
  - { offsetInCU: 0x211AB, offset: 0x211AB, size: 0x8, addend: 0x0, symName: __ZNSt3__118__unwrap_iter_implIPKfLb1EE8__unwrapB8ue170006ES2_, symObjAddr: 0x7CA0, symBinAddr: 0x100008520, symSize: 0x20 }
  - { offsetInCU: 0x211CE, offset: 0x211CE, size: 0x8, addend: 0x0, symName: __ZNSt3__14pairIPKfS2_EC2B8ue170006IS2_S2_LPv0EEEOT_OT0_, symObjAddr: 0x7CD0, symBinAddr: 0x100008550, symSize: 0x30 }
  - { offsetInCU: 0x2124D, offset: 0x2124D, size: 0x8, addend: 0x0, symName: __ZNKSt3__114__copy_trivialclB8ue170006IKffLi0EEENS_4pairIPT_PT0_EES5_S5_S7_, symObjAddr: 0x7E70, symBinAddr: 0x1000086F0, symSize: 0x40 }
  - { offsetInCU: 0x212BB, offset: 0x212BB, size: 0x8, addend: 0x0, symName: __ZNSt3__14pairIPKfPfEC1B8ue170006IRS2_S3_LPv0EEEOT_OT0_, symObjAddr: 0x8000, symBinAddr: 0x100008880, symSize: 0x30 }
  - { offsetInCU: 0x21319, offset: 0x21319, size: 0x8, addend: 0x0, symName: __ZNSt3__14pairIPKfPfEC2B8ue170006IRS2_S3_LPv0EEEOT_OT0_, symObjAddr: 0x8030, symBinAddr: 0x1000088B0, symSize: 0x30 }
  - { offsetInCU: 0x21377, offset: 0x21377, size: 0x8, addend: 0x0, symName: __ZNSt3__14pairIPKfPfEC1B8ue170006IS2_S3_LPv0EEEOT_OT0_, symObjAddr: 0x8060, symBinAddr: 0x1000088E0, symSize: 0x30 }
  - { offsetInCU: 0x213D5, offset: 0x213D5, size: 0x8, addend: 0x0, symName: __ZNSt3__14pairIPKfPfEC2B8ue170006IS2_S3_LPv0EEEOT_OT0_, symObjAddr: 0x8090, symBinAddr: 0x100008910, symSize: 0x30 }
  - { offsetInCU: 0x21433, offset: 0x21433, size: 0x8, addend: 0x0, symName: __ZNSt3__119__unwrap_range_implIPKfS2_E8__rewrapB8ue170006ES2_S2_, symObjAddr: 0x80C0, symBinAddr: 0x100008940, symSize: 0x30 }
  - { offsetInCU: 0x21464, offset: 0x21464, size: 0x8, addend: 0x0, symName: __ZNSt3__118__unwrap_iter_implIPKfLb1EE8__rewrapB8ue170006ES2_S2_, symObjAddr: 0x8130, symBinAddr: 0x1000089B0, symSize: 0x50 }
  - { offsetInCU: 0x21495, offset: 0x21495, size: 0x8, addend: 0x0, symName: __ZNSt3__118basic_stringstreamIcNS_11char_traitsIcEENS_9allocatorIcEEED2Ev, symObjAddr: 0x8180, symBinAddr: 0x100008A00, symSize: 0x60 }
  - { offsetInCU: 0x214CF, offset: 0x214CF, size: 0x8, addend: 0x0, symName: __ZThn16_NSt3__118basic_stringstreamIcNS_11char_traitsIcEENS_9allocatorIcEEED1Ev, symObjAddr: 0x81E0, symBinAddr: 0x100008A60, symSize: 0x20 }
  - { offsetInCU: 0x214E6, offset: 0x214E6, size: 0x8, addend: 0x0, symName: __ZTv0_n24_NSt3__118basic_stringstreamIcNS_11char_traitsIcEENS_9allocatorIcEEED1Ev, symObjAddr: 0x8200, symBinAddr: 0x100008A80, symSize: 0x20 }
  - { offsetInCU: 0x21502, offset: 0x21502, size: 0x8, addend: 0x0, symName: __ZNSt3__115basic_stringbufIcNS_11char_traitsIcEENS_9allocatorIcEEED1Ev, symObjAddr: 0x8220, symBinAddr: 0x100008AA0, symSize: 0x20 }
  - { offsetInCU: 0x2152F, offset: 0x2152F, size: 0x8, addend: 0x0, symName: __ZNSt3__115basic_stringbufIcNS_11char_traitsIcEENS_9allocatorIcEEED2Ev, symObjAddr: 0x8240, symBinAddr: 0x100008AC0, symSize: 0x40 }
  - { offsetInCU: 0x2155C, offset: 0x2155C, size: 0x8, addend: 0x0, symName: __ZNSt3__114basic_ifstreamIcNS_11char_traitsIcEEED2Ev, symObjAddr: 0x8280, symBinAddr: 0x100008B00, symSize: 0x60 }
  - { offsetInCU: 0x21596, offset: 0x21596, size: 0x8, addend: 0x0, symName: __ZTv0_n24_NSt3__114basic_ifstreamIcNS_11char_traitsIcEEED1Ev, symObjAddr: 0x82E0, symBinAddr: 0x100008B60, symSize: 0x20 }
  - { offsetInCU: 0x215CE, offset: 0x215CE, size: 0x8, addend: 0x0, symName: __ZNKSt3__113basic_ostreamIcNS_11char_traitsIcEEE6sentrycvbB8ue170006Ev, symObjAddr: 0x84F0, symBinAddr: 0x100008D70, symSize: 0x20 }
  - { offsetInCU: 0x215F4, offset: 0x215F4, size: 0x8, addend: 0x0, symName: __ZNSt3__119ostreambuf_iteratorIcNS_11char_traitsIcEEEC1B8ue170006ERNS_13basic_ostreamIcS2_EE, symObjAddr: 0x8730, symBinAddr: 0x100008FB0, symSize: 0x30 }
  - { offsetInCU: 0x2162C, offset: 0x2162C, size: 0x8, addend: 0x0, symName: __ZNKSt3__18ios_base5flagsB8ue170006Ev, symObjAddr: 0x8760, symBinAddr: 0x100008FE0, symSize: 0x20 }
  - { offsetInCU: 0x21654, offset: 0x21654, size: 0x8, addend: 0x0, symName: __ZNKSt3__19basic_iosIcNS_11char_traitsIcEEE4fillB8ue170006Ev, symObjAddr: 0x8780, symBinAddr: 0x100009000, symSize: 0x70 }
  - { offsetInCU: 0x2167C, offset: 0x2167C, size: 0x8, addend: 0x0, symName: __ZNKSt3__119ostreambuf_iteratorIcNS_11char_traitsIcEEE6failedB8ue170006Ev, symObjAddr: 0x87F0, symBinAddr: 0x100009070, symSize: 0x20 }
  - { offsetInCU: 0x216A2, offset: 0x216A2, size: 0x8, addend: 0x0, symName: __ZNSt3__19basic_iosIcNS_11char_traitsIcEEE8setstateB8ue170006Ej, symObjAddr: 0x8810, symBinAddr: 0x100009090, symSize: 0x30 }
  - { offsetInCU: 0x216D7, offset: 0x216D7, size: 0x8, addend: 0x0, symName: __ZNKSt3__18ios_base5widthB8ue170006Ev, symObjAddr: 0x8840, symBinAddr: 0x1000090C0, symSize: 0x20 }
  - { offsetInCU: 0x216FF, offset: 0x216FF, size: 0x8, addend: 0x0, symName: __ZNSt3__115basic_streambufIcNS_11char_traitsIcEEE5sputnB8ue170006EPKcl, symObjAddr: 0x8860, symBinAddr: 0x1000090E0, symSize: 0x30 }
  - { offsetInCU: 0x21741, offset: 0x21741, size: 0x8, addend: 0x0, symName: __ZNSt3__112basic_stringIcNS_11char_traitsIcEENS_9allocatorIcEEEC1B8ue170006Emc, symObjAddr: 0x8890, symBinAddr: 0x100009110, symSize: 0x30 }
  - { offsetInCU: 0x21789, offset: 0x21789, size: 0x8, addend: 0x0, symName: __ZNSt3__112basic_stringIcNS_11char_traitsIcEENS_9allocatorIcEEE4dataB8ue170006Ev, symObjAddr: 0x88C0, symBinAddr: 0x100009140, symSize: 0x30 }
  - { offsetInCU: 0x217AF, offset: 0x217AF, size: 0x8, addend: 0x0, symName: __ZNSt3__18ios_base5widthB8ue170006El, symObjAddr: 0x88F0, symBinAddr: 0x100009170, symSize: 0x30 }
  - { offsetInCU: 0x217F5, offset: 0x217F5, size: 0x8, addend: 0x0, symName: __ZNSt3__112basic_stringIcNS_11char_traitsIcEENS_9allocatorIcEEEC2B8ue170006Emc, symObjAddr: 0x8920, symBinAddr: 0x1000091A0, symSize: 0x50 }
  - { offsetInCU: 0x2183D, offset: 0x2183D, size: 0x8, addend: 0x0, symName: __ZNSt3__112basic_stringIcNS_11char_traitsIcEENS_9allocatorIcEEE13__get_pointerB8ue170006Ev, symObjAddr: 0x8980, symBinAddr: 0x100009200, symSize: 0x50 }
  - { offsetInCU: 0x21863, offset: 0x21863, size: 0x8, addend: 0x0, symName: __ZNSt3__112basic_stringIcNS_11char_traitsIcEENS_9allocatorIcEEE18__get_long_pointerB8ue170006Ev, symObjAddr: 0x89D0, symBinAddr: 0x100009250, symSize: 0x20 }
  - { offsetInCU: 0x21889, offset: 0x21889, size: 0x8, addend: 0x0, symName: __ZNSt3__112basic_stringIcNS_11char_traitsIcEENS_9allocatorIcEEE19__get_short_pointerB8ue170006Ev, symObjAddr: 0x89F0, symBinAddr: 0x100009270, symSize: 0x30 }
  - { offsetInCU: 0x218AF, offset: 0x218AF, size: 0x8, addend: 0x0, symName: __ZNSt3__114pointer_traitsIPcE10pointer_toB8ue170006ERc, symObjAddr: 0x8A20, symBinAddr: 0x1000092A0, symSize: 0x10 }
  - { offsetInCU: 0x218D2, offset: 0x218D2, size: 0x8, addend: 0x0, symName: __ZNSt3__119ostreambuf_iteratorIcNS_11char_traitsIcEEEC2B8ue170006ERNS_13basic_ostreamIcS2_EE, symObjAddr: 0x8A30, symBinAddr: 0x1000092B0, symSize: 0x50 }
  - { offsetInCU: 0x2190A, offset: 0x2190A, size: 0x8, addend: 0x0, symName: __ZNKSt3__19basic_iosIcNS_11char_traitsIcEEE5rdbufB8ue170006Ev, symObjAddr: 0x8A80, symBinAddr: 0x100009300, symSize: 0x20 }
  - { offsetInCU: 0x21932, offset: 0x21932, size: 0x8, addend: 0x0, symName: __ZNKSt3__18ios_base5rdbufB8ue170006Ev, symObjAddr: 0x8AA0, symBinAddr: 0x100009320, symSize: 0x20 }
  - { offsetInCU: 0x21958, offset: 0x21958, size: 0x8, addend: 0x0, symName: __ZNSt3__111char_traitsIcE11eq_int_typeB8ue170006Eii, symObjAddr: 0x8AC0, symBinAddr: 0x100009340, symSize: 0x20 }
  - { offsetInCU: 0x2198B, offset: 0x2198B, size: 0x8, addend: 0x0, symName: __ZNSt3__111char_traitsIcE3eofB8ue170006Ev, symObjAddr: 0x8AE0, symBinAddr: 0x100009360, symSize: 0x10 }
  - { offsetInCU: 0x2199F, offset: 0x2199F, size: 0x8, addend: 0x0, symName: __ZNKSt3__19basic_iosIcNS_11char_traitsIcEEE5widenB8ue170006Ec, symObjAddr: 0x8AF0, symBinAddr: 0x100009370, symSize: 0x80 }
  - { offsetInCU: 0x21A08, offset: 0x21A08, size: 0x8, addend: 0x0, symName: __ZNKSt3__15ctypeIcE5widenB8ue170006Ec, symObjAddr: 0x8BA0, symBinAddr: 0x100009420, symSize: 0x30 }
  - { offsetInCU: 0x21A3D, offset: 0x21A3D, size: 0x8, addend: 0x0, symName: __ZNSt3__18ios_base8setstateB8ue170006Ej, symObjAddr: 0x8BD0, symBinAddr: 0x100009450, symSize: 0x30 }
  - { offsetInCU: 0x21A74, offset: 0x21A74, size: 0x8, addend: 0x0, symName: __ZNSt3__19basic_iosIcNS_11char_traitsIcEEEC2B8ue170006Ev, symObjAddr: 0x8C00, symBinAddr: 0x100009480, symSize: 0x40 }
  - { offsetInCU: 0x21A9E, offset: 0x21A9E, size: 0x8, addend: 0x0, symName: __ZNSt3__113basic_istreamIcNS_11char_traitsIcEEEC2B8ue170006EPNS_15basic_streambufIcS2_EE, symObjAddr: 0x8C40, symBinAddr: 0x1000094C0, symSize: 0x50 }
  - { offsetInCU: 0x21AE3, offset: 0x21AE3, size: 0x8, addend: 0x0, symName: __ZNSt3__18ios_baseC2B8ue170006Ev, symObjAddr: 0x8C90, symBinAddr: 0x100009510, symSize: 0x20 }
  - { offsetInCU: 0x21B0D, offset: 0x21B0D, size: 0x8, addend: 0x0, symName: __ZNSt3__19basic_iosIcNS_11char_traitsIcEEE4initB8ue170006EPNS_15basic_streambufIcS2_EE, symObjAddr: 0x8CB0, symBinAddr: 0x100009530, symSize: 0x50 }
  - { offsetInCU: 0x21B44, offset: 0x21B44, size: 0x8, addend: 0x0, symName: __ZNKSt3__19basic_iosIcNS_11char_traitsIcEEE4failB8ue170006Ev, symObjAddr: 0x8D00, symBinAddr: 0x100009580, symSize: 0x20 }
  - { offsetInCU: 0x21B6A, offset: 0x21B6A, size: 0x8, addend: 0x0, symName: __ZNKSt3__18ios_base4failB8ue170006Ev, symObjAddr: 0x8D20, symBinAddr: 0x1000095A0, symSize: 0x20 }
  - { offsetInCU: 0x21B92, offset: 0x21B92, size: 0x8, addend: 0x0, symName: __ZNSt3__114basic_iostreamIcNS_11char_traitsIcEEEC2B8ue170006EPNS_15basic_streambufIcS2_EE, symObjAddr: 0x8D40, symBinAddr: 0x1000095C0, symSize: 0xA0 }
  - { offsetInCU: 0x21BD8, offset: 0x21BD8, size: 0x8, addend: 0x0, symName: __ZNSt3__115basic_stringbufIcNS_11char_traitsIcEENS_9allocatorIcEEEC1B8ue170006ERKNS_12basic_stringIcS2_S4_EEj, symObjAddr: 0x8DE0, symBinAddr: 0x100009660, symSize: 0x30 }
  - { offsetInCU: 0x21C20, offset: 0x21C20, size: 0x8, addend: 0x0, symName: __ZNSt3__113basic_ostreamIcNS_11char_traitsIcEEEC2B8ue170006Ev, symObjAddr: 0x8E10, symBinAddr: 0x100009690, symSize: 0x30 }
  - { offsetInCU: 0x21C57, offset: 0x21C57, size: 0x8, addend: 0x0, symName: __ZNSt3__115basic_stringbufIcNS_11char_traitsIcEENS_9allocatorIcEEEC2B8ue170006ERKNS_12basic_stringIcS2_S4_EEj, symObjAddr: 0x8E40, symBinAddr: 0x1000096C0, symSize: 0xA0 }
  - { offsetInCU: 0x21C9F, offset: 0x21C9F, size: 0x8, addend: 0x0, symName: __ZNKSt3__112basic_stringIcNS_11char_traitsIcEENS_9allocatorIcEEE13get_allocatorB8ue170006Ev, symObjAddr: 0x8EE0, symBinAddr: 0x100009760, symSize: 0x20 }
  - { offsetInCU: 0x21CC5, offset: 0x21CC5, size: 0x8, addend: 0x0, symName: __ZNSt3__112basic_stringIcNS_11char_traitsIcEENS_9allocatorIcEEEC1B8ue170006ERKS4_, symObjAddr: 0x8F00, symBinAddr: 0x100009780, symSize: 0x30 }
  - { offsetInCU: 0x21CFE, offset: 0x21CFE, size: 0x8, addend: 0x0, symName: __ZNKSt3__112basic_stringIcNS_11char_traitsIcEENS_9allocatorIcEEE7__allocB8ue170006Ev, symObjAddr: 0x8F30, symBinAddr: 0x1000097B0, symSize: 0x20 }
  - { offsetInCU: 0x21D24, offset: 0x21D24, size: 0x8, addend: 0x0, symName: __ZNKSt3__117__compressed_pairINS_12basic_stringIcNS_11char_traitsIcEENS_9allocatorIcEEE5__repES5_E6secondB8ue170006Ev, symObjAddr: 0x8F50, symBinAddr: 0x1000097D0, symSize: 0x20 }
  - { offsetInCU: 0x21D4A, offset: 0x21D4A, size: 0x8, addend: 0x0, symName: __ZNKSt3__122__compressed_pair_elemINS_9allocatorIcEELi1ELb1EE5__getB8ue170006Ev, symObjAddr: 0x8F70, symBinAddr: 0x1000097F0, symSize: 0x10 }
  - { offsetInCU: 0x21D70, offset: 0x21D70, size: 0x8, addend: 0x0, symName: __ZNSt3__112basic_stringIcNS_11char_traitsIcEENS_9allocatorIcEEEC2B8ue170006ERKS4_, symObjAddr: 0x8F80, symBinAddr: 0x100009800, symSize: 0x50 }
  - { offsetInCU: 0x21DA9, offset: 0x21DA9, size: 0x8, addend: 0x0, symName: __ZNSt3__117__compressed_pairINS_12basic_stringIcNS_11char_traitsIcEENS_9allocatorIcEEE5__repES5_EC1B8ue170006INS_18__default_init_tagERKS5_EEOT_OT0_, symObjAddr: 0x8FD0, symBinAddr: 0x100009850, symSize: 0x30 }
  - { offsetInCU: 0x21E01, offset: 0x21E01, size: 0x8, addend: 0x0, symName: __ZNSt3__117__compressed_pairINS_12basic_stringIcNS_11char_traitsIcEENS_9allocatorIcEEE5__repES5_EC2B8ue170006INS_18__default_init_tagERKS5_EEOT_OT0_, symObjAddr: 0x9000, symBinAddr: 0x100009880, symSize: 0x40 }
  - { offsetInCU: 0x21E59, offset: 0x21E59, size: 0x8, addend: 0x0, symName: __ZNSt3__122__compressed_pair_elemINS_9allocatorIcEELi1ELb1EEC2B8ue170006IRKS2_vEEOT_, symObjAddr: 0x9040, symBinAddr: 0x1000098C0, symSize: 0x10 }
  - { offsetInCU: 0x21EBC, offset: 0x21EBC, size: 0x8, addend: 0x0, symName: __ZNKSt3__113basic_istreamIcNS_11char_traitsIcEEE6sentrycvbB8ue170006Ev, symObjAddr: 0x9050, symBinAddr: 0x1000098D0, symSize: 0x20 }
  - { offsetInCU: 0x21EE2, offset: 0x21EE2, size: 0x8, addend: 0x0, symName: __ZNSt3__112basic_stringIcNS_11char_traitsIcEENS_9allocatorIcEEE5clearB8ue170006Ev, symObjAddr: 0x9070, symBinAddr: 0x1000098F0, symSize: 0x80 }
  - { offsetInCU: 0x21F0A, offset: 0x21F0A, size: 0x8, addend: 0x0, symName: __ZNSt3__115basic_streambufIcNS_11char_traitsIcEEE6sbumpcB8ue170006Ev, symObjAddr: 0x90F0, symBinAddr: 0x100009970, symSize: 0x60 }
  - { offsetInCU: 0x21F30, offset: 0x21F30, size: 0x8, addend: 0x0, symName: __ZNSt3__111char_traitsIcE12to_char_typeB8ue170006Ei, symObjAddr: 0x9150, symBinAddr: 0x1000099D0, symSize: 0x10 }
  - { offsetInCU: 0x21F53, offset: 0x21F53, size: 0x8, addend: 0x0, symName: __ZNSt3__111char_traitsIcE2eqEcc, symObjAddr: 0x9160, symBinAddr: 0x1000099E0, symSize: 0x30 }
  - { offsetInCU: 0x21F84, offset: 0x21F84, size: 0x8, addend: 0x0, symName: __ZNKSt3__112basic_stringIcNS_11char_traitsIcEENS_9allocatorIcEEE8max_sizeB8ue170006Ev, symObjAddr: 0x9190, symBinAddr: 0x100009A10, symSize: 0xA0 }
  - { offsetInCU: 0x21FD6, offset: 0x21FD6, size: 0x8, addend: 0x0, symName: __ZNSt3__18ios_base18__setstate_nothrowB8ue170006Ej, symObjAddr: 0x9230, symBinAddr: 0x100009AB0, symSize: 0x50 }
  - { offsetInCU: 0x2200B, offset: 0x2200B, size: 0x8, addend: 0x0, symName: __ZNKSt3__19basic_iosIcNS_11char_traitsIcEEE10exceptionsB8ue170006Ev, symObjAddr: 0x9280, symBinAddr: 0x100009B00, symSize: 0x20 }
  - { offsetInCU: 0x22031, offset: 0x22031, size: 0x8, addend: 0x0, symName: __ZNSt3__111char_traitsIcE6assignB8ue170006ERcRKc, symObjAddr: 0x92A0, symBinAddr: 0x100009B20, symSize: 0x20 }
  - { offsetInCU: 0x22062, offset: 0x22062, size: 0x8, addend: 0x0, symName: __ZNSt3__112basic_stringIcNS_11char_traitsIcEENS_9allocatorIcEEE15__set_long_sizeB8ue170006Em, symObjAddr: 0x92C0, symBinAddr: 0x100009B40, symSize: 0x30 }
  - { offsetInCU: 0x22097, offset: 0x22097, size: 0x8, addend: 0x0, symName: __ZNSt3__112basic_stringIcNS_11char_traitsIcEENS_9allocatorIcEEE16__set_short_sizeB8ue170006Em, symObjAddr: 0x92F0, symBinAddr: 0x100009B70, symSize: 0x50 }
  - { offsetInCU: 0x220CC, offset: 0x220CC, size: 0x8, addend: 0x0, symName: __ZNSt3__111char_traitsIcE11to_int_typeB8ue170006Ec, symObjAddr: 0x9340, symBinAddr: 0x100009BC0, symSize: 0x10 }
  - { offsetInCU: 0x220FB, offset: 0x220FB, size: 0x8, addend: 0x0, symName: __ZNSt3__116allocator_traitsINS_9allocatorIcEEE8max_sizeB8ue170006IS2_vvEEmRKS2_, symObjAddr: 0x9350, symBinAddr: 0x100009BD0, symSize: 0x20 }
  - { offsetInCU: 0x22126, offset: 0x22126, size: 0x8, addend: 0x0, symName: __ZNKSt3__18ios_base10exceptionsB8ue170006Ev, symObjAddr: 0x9370, symBinAddr: 0x100009BF0, symSize: 0x11 }
  - { offsetInCU: 0xF2C2, offset: 0x315BD, size: 0x8, addend: 0x0, symName: __ZNSt3__17advanceB8ue170006IPNS_6vectorINS1_IfNS_9allocatorIfEEEENS2_IS4_EEEEllvEEvRT_T0_, symObjAddr: 0x4E30, symBinAddr: 0x10000DE50, symSize: 0x30 }
  - { offsetInCU: 0xF542, offset: 0x3183D, size: 0x8, addend: 0x0, symName: __ZNSt3__17advanceB8ue170006INS_16reverse_iteratorIPNS_6vectorINS2_IfNS_9allocatorIfEEEENS3_IS5_EEEEEEllvEEvRT_T0_, symObjAddr: 0x5790, symBinAddr: 0x10000E200, symSize: 0x30 }
  - { offsetInCU: 0xF5AD, offset: 0x318A8, size: 0x8, addend: 0x0, symName: __ZNSt3__17advanceB8ue170006IPfllvEEvRT_T0_, symObjAddr: 0x9780, symBinAddr: 0x10000F1A0, symSize: 0x30 }
  - { offsetInCU: 0x116CF, offset: 0x339CA, size: 0x8, addend: 0x0, symName: __ZNSt3__1rsB8ue170006IcNS_11char_traitsIcEENS_9allocatorIcEEEERNS_13basic_istreamIT_T0_EES9_RNS_12basic_stringIS6_S7_T1_EE, symObjAddr: 0x9D0, symBinAddr: 0x10000A5A0, symSize: 0x2F0 }
  - { offsetInCU: 0x1179E, offset: 0x33A99, size: 0x8, addend: 0x0, symName: __ZNSt3__1lsB8ue170006IcNS_11char_traitsIcEENS_9allocatorIcEEEERNS_13basic_ostreamIT_T0_EES9_RKNS_12basic_stringIS6_S7_T1_EE, symObjAddr: 0xF50, symBinAddr: 0x10000AA50, symSize: 0x50 }
  - { offsetInCU: 0x11B99, offset: 0x33E94, size: 0x8, addend: 0x0, symName: __ZNSt3__112construct_atB8ue170006INS_6vectorINS1_IfNS_9allocatorIfEEEENS2_IS4_EEEEJEPS6_EEPT_S9_DpOT0_, symObjAddr: 0x3C00, symBinAddr: 0x10000D1D0, symSize: 0x30 }
  - { offsetInCU: 0x11BF5, offset: 0x33EF0, size: 0x8, addend: 0x0, symName: __ZNSt3__119__allocate_at_leastB8ue170006INS_9allocatorINS_6vectorINS2_IfNS1_IfEEEENS1_IS4_EEEEEEEEDaRT_m, symObjAddr: 0x4150, symBinAddr: 0x10000D410, symSize: 0x40 }
  - { offsetInCU: 0x11C38, offset: 0x33F33, size: 0x8, addend: 0x0, symName: __ZNSt3__117allocate_at_leastB8ue170006INS_9allocatorINS_6vectorINS2_IfNS1_IfEEEENS1_IS4_EEEEEEEENS_17allocation_resultINS_16allocator_traitsIT_E7pointerEEERSA_m, symObjAddr: 0x4230, symBinAddr: 0x10000D4F0, symSize: 0x40 }
  - { offsetInCU: 0x11C7B, offset: 0x33F76, size: 0x8, addend: 0x0, symName: __ZNSt3__142__uninitialized_allocator_move_if_noexceptB8ue170006INS_9allocatorINS_6vectorINS2_IfNS1_IfEEEENS1_IS4_EEEEEENS_16reverse_iteratorIPS6_EESA_SA_EET2_RT_T0_T1_SB_, symObjAddr: 0x45D0, symBinAddr: 0x10000D6D0, symSize: 0x180 }
  - { offsetInCU: 0x11D1A, offset: 0x34015, size: 0x8, addend: 0x0, symName: __ZNSt3__14swapB8ue170006IPNS_6vectorINS1_IfNS_9allocatorIfEEEENS2_IS4_EEEEEENS_9enable_ifIXaasr21is_move_constructibleIT_EE5valuesr18is_move_assignableIS9_EE5valueEvE4typeERS9_SC_, symObjAddr: 0x47A0, symBinAddr: 0x10000D8A0, symSize: 0x40 }
  - { offsetInCU: 0x11D6B, offset: 0x34066, size: 0x8, addend: 0x0, symName: __ZNSt3__122__make_exception_guardB8ue170006INS_29_AllocatorDestroyRangeReverseINS_9allocatorINS_6vectorINS3_IfNS2_IfEEEENS2_IS5_EEEEEENS_16reverse_iteratorIPS7_EEEEEENS_28__exception_guard_exceptionsIT_EESE_, symObjAddr: 0x48C0, symBinAddr: 0x10000D980, symSize: 0x60 }
  - { offsetInCU: 0x11DA0, offset: 0x3409B, size: 0x8, addend: 0x0, symName: __ZNSt3__1neB8ue170006IPNS_6vectorINS1_IfNS_9allocatorIfEEEENS2_IS4_EEEES7_EEbRKNS_16reverse_iteratorIT_EERKNS8_IT0_EE, symObjAddr: 0x4960, symBinAddr: 0x10000DA20, symSize: 0x40 }
  - { offsetInCU: 0x11DEC, offset: 0x340E7, size: 0x8, addend: 0x0, symName: __ZNSt3__112__to_addressB8ue170006INS_16reverse_iteratorIPNS_6vectorINS2_IfNS_9allocatorIfEEEENS3_IS5_EEEEEEvEEu7__decayIDTclsr19__to_address_helperIT_EE6__callclsr3stdE7declvalIRKSA_EEEEESC_, symObjAddr: 0x49D0, symBinAddr: 0x10000DA90, symSize: 0x20 }
  - { offsetInCU: 0x11E22, offset: 0x3411D, size: 0x8, addend: 0x0, symName: __ZNSt3__112construct_atB8ue170006INS_6vectorINS1_IfNS_9allocatorIfEEEENS2_IS4_EEEEJS6_EPS6_EEPT_S9_DpOT0_, symObjAddr: 0x4B30, symBinAddr: 0x10000DBF0, symSize: 0x40 }
  - { offsetInCU: 0x11EBB, offset: 0x341B6, size: 0x8, addend: 0x0, symName: __ZNSt3__14prevB8ue170006IPNS_6vectorINS1_IfNS_9allocatorIfEEEENS2_IS4_EEEEEENS_9enable_ifIXsr29__has_input_iterator_categoryIT_EE5valueES9_E4typeES9_NS_15iterator_traitsIS9_E15difference_typeE, symObjAddr: 0x4E00, symBinAddr: 0x10000DE20, symSize: 0x30 }
  - { offsetInCU: 0x11EFE, offset: 0x341F9, size: 0x8, addend: 0x0, symName: __ZNSt3__19__advanceB8ue170006IPNS_6vectorINS1_IfNS_9allocatorIfEEEENS2_IS4_EEEEEEvRT_NS_15iterator_traitsIS8_E15difference_typeENS_26random_access_iterator_tagE, symObjAddr: 0x4E70, symBinAddr: 0x10000DE80, symSize: 0x20 }
  - { offsetInCU: 0x11F47, offset: 0x34242, size: 0x8, addend: 0x0, symName: __ZNSt3__119__allocator_destroyB8ue170006INS_9allocatorINS_6vectorINS2_IfNS1_IfEEEENS1_IS4_EEEEEENS_16reverse_iteratorINS8_IPS6_EEEESB_EEvRT_T0_T1_, symObjAddr: 0x4FC0, symBinAddr: 0x10000DFD0, symSize: 0x70 }
  - { offsetInCU: 0x11FAA, offset: 0x342A5, size: 0x8, addend: 0x0, symName: __ZNSt3__1neB8ue170006INS_16reverse_iteratorIPNS_6vectorINS2_IfNS_9allocatorIfEEEENS3_IS5_EEEEEES9_EEbRKNS1_IT_EERKNS1_IT0_EE, symObjAddr: 0x5060, symBinAddr: 0x10000E070, symSize: 0x50 }
  - { offsetInCU: 0x11FF6, offset: 0x342F1, size: 0x8, addend: 0x0, symName: __ZNSt3__112__to_addressB8ue170006INS_16reverse_iteratorINS1_IPNS_6vectorINS2_IfNS_9allocatorIfEEEENS3_IS5_EEEEEEEEvEEu7__decayIDTclsr19__to_address_helperIT_EE6__callclsr3stdE7declvalIRKSB_EEEEESD_, symObjAddr: 0x50D0, symBinAddr: 0x10000E0C0, symSize: 0x20 }
  - { offsetInCU: 0x12055, offset: 0x34350, size: 0x8, addend: 0x0, symName: __ZNSt3__14prevB8ue170006INS_16reverse_iteratorIPNS_6vectorINS2_IfNS_9allocatorIfEEEENS3_IS5_EEEEEEEENS_9enable_ifIXsr29__has_input_iterator_categoryIT_EE5valueESB_E4typeESB_NS_15iterator_traitsISB_E15difference_typeE, symObjAddr: 0x5750, symBinAddr: 0x10000E1C0, symSize: 0x40 }
  - { offsetInCU: 0x12098, offset: 0x34393, size: 0x8, addend: 0x0, symName: __ZNSt3__19__advanceB8ue170006INS_16reverse_iteratorIPNS_6vectorINS2_IfNS_9allocatorIfEEEENS3_IS5_EEEEEEEEvRT_NS_15iterator_traitsISA_E15difference_typeENS_26random_access_iterator_tagE, symObjAddr: 0x57C0, symBinAddr: 0x10000E230, symSize: 0x30 }
  - { offsetInCU: 0x12106, offset: 0x34401, size: 0x8, addend: 0x0, symName: __ZNSt3__112construct_atB8ue170006INS_6vectorIfNS_9allocatorIfEEEEJEPS4_EEPT_S7_DpOT0_, symObjAddr: 0x61A0, symBinAddr: 0x10000E860, symSize: 0x30 }
  - { offsetInCU: 0x12187, offset: 0x34482, size: 0x8, addend: 0x0, symName: __ZNSt3__112construct_atB8ue170006IfJEPfEEPT_S3_DpOT0_, symObjAddr: 0x7CE0, symBinAddr: 0x10000ECC0, symSize: 0x20 }
  - { offsetInCU: 0x121E3, offset: 0x344DE, size: 0x8, addend: 0x0, symName: __ZNSt3__18distanceB8ue170006IPfEENS_15iterator_traitsIT_E15difference_typeES3_S3_, symObjAddr: 0x94E0, symBinAddr: 0x10000F0B0, symSize: 0x30 }
  - { offsetInCU: 0x12226, offset: 0x34521, size: 0x8, addend: 0x0, symName: __ZNSt3__14nextB8ue170006IPfEENS_9enable_ifIXsr29__has_input_iterator_categoryIT_EE5valueES3_E4typeES3_NS_15iterator_traitsIS3_E15difference_typeE, symObjAddr: 0x9510, symBinAddr: 0x10000F0E0, symSize: 0x30 }
  - { offsetInCU: 0x12269, offset: 0x34564, size: 0x8, addend: 0x0, symName: __ZNSt3__19__advanceB8ue170006IPfEEvRT_NS_15iterator_traitsIS2_E15difference_typeENS_26random_access_iterator_tagE, symObjAddr: 0x97B0, symBinAddr: 0x10000F1D0, symSize: 0x20 }
  - { offsetInCU: 0x122B2, offset: 0x345AD, size: 0x8, addend: 0x0, symName: __ZNSt3__110__distanceB8ue170006IPfEENS_15iterator_traitsIT_E15difference_typeES3_S3_NS_26random_access_iterator_tagE, symObjAddr: 0x9DB0, symBinAddr: 0x10000F230, symSize: 0x20 }
  - { offsetInCU: 0x122FF, offset: 0x345FA, size: 0x8, addend: 0x0, symName: __ZNSt3__112construct_atB8ue170006IfJRKfEPfEEPT_S5_DpOT0_, symObjAddr: 0xAA70, symBinAddr: 0x10000F420, symSize: 0x30 }
  - { offsetInCU: 0x1251E, offset: 0x34819, size: 0x8, addend: 0x0, symName: __ZNSt3__118generate_canonicalB8ue170006IfLm24ENS_13random_deviceEEET_RT1_, symObjAddr: 0xBE90, symBinAddr: 0x10000FAA0, symSize: 0x100 }
  - { offsetInCU: 0x12F63, offset: 0x3525E, size: 0x8, addend: 0x0, symName: __ZNSt3__16vectorINS0_INS0_IfNS_9allocatorIfEEEENS1_IS3_EEEENS1_IS5_EEE26__swap_out_circular_bufferERNS_14__split_bufferIS5_RS6_EE, symObjAddr: 0x39D0, symBinAddr: 0x10000CFB0, symSize: 0x120 }
  - { offsetInCU: 0x15160, offset: 0x3745B, size: 0x8, addend: 0x0, symName: __ZN9NeuralNetC2Ev, symObjAddr: 0x0, symBinAddr: 0x100009C10, symSize: 0x80 }
  - { offsetInCU: 0x1518C, offset: 0x37487, size: 0x8, addend: 0x0, symName: __ZNSt3__16vectorINS0_INS0_IfNS_9allocatorIfEEEENS1_IS3_EEEENS1_IS5_EEEC1B8ue170006Ev, symObjAddr: 0x80, symBinAddr: 0x100009C90, symSize: 0x20 }
  - { offsetInCU: 0x151B6, offset: 0x374B1, size: 0x8, addend: 0x0, symName: __ZN9NeuralNetC1Ev, symObjAddr: 0xE0, symBinAddr: 0x100009CB0, symSize: 0x20 }
  - { offsetInCU: 0x151E2, offset: 0x374DD, size: 0x8, addend: 0x0, symName: __ZN9NeuralNetC2Ei, symObjAddr: 0x100, symBinAddr: 0x100009CD0, symSize: 0x80 }
  - { offsetInCU: 0x1521C, offset: 0x37517, size: 0x8, addend: 0x0, symName: __ZN9NeuralNetC1Ei, symObjAddr: 0x180, symBinAddr: 0x100009D50, symSize: 0x30 }
  - { offsetInCU: 0x15256, offset: 0x37551, size: 0x8, addend: 0x0, symName: __ZN9NeuralNetC2Eii, symObjAddr: 0x1B0, symBinAddr: 0x100009D80, symSize: 0x80 }
  - { offsetInCU: 0x1529E, offset: 0x37599, size: 0x8, addend: 0x0, symName: __ZN9NeuralNetC1Eii, symObjAddr: 0x230, symBinAddr: 0x100009E00, symSize: 0x30 }
  - { offsetInCU: 0x152E6, offset: 0x375E1, size: 0x8, addend: 0x0, symName: __ZN9NeuralNetC2Eiii, symObjAddr: 0x260, symBinAddr: 0x100009E30, symSize: 0x90 }
  - { offsetInCU: 0x1533C, offset: 0x37637, size: 0x8, addend: 0x0, symName: __ZN9NeuralNetC1Eiii, symObjAddr: 0x2F0, symBinAddr: 0x100009EC0, symSize: 0x30 }
  - { offsetInCU: 0x15392, offset: 0x3768D, size: 0x8, addend: 0x0, symName: __ZN9NeuralNet9getParamsENSt3__112basic_stringIcNS0_11char_traitsIcEENS0_9allocatorIcEEEE, symObjAddr: 0x320, symBinAddr: 0x100009EF0, symSize: 0x550 }
  - { offsetInCU: 0x15532, offset: 0x3782D, size: 0x8, addend: 0x0, symName: __ZNSt3__114basic_ifstreamIcNS_11char_traitsIcEEEC1ERKNS_12basic_stringIcS2_NS_9allocatorIcEEEEj, symObjAddr: 0x870, symBinAddr: 0x10000A440, symSize: 0x160 }
  - { offsetInCU: 0x1557C, offset: 0x37877, size: 0x8, addend: 0x0, symName: __ZNSt3__16vectorINS0_INS0_IfNS_9allocatorIfEEEENS1_IS3_EEEENS1_IS5_EEE6resizeEm, symObjAddr: 0xCC0, symBinAddr: 0x10000A890, symSize: 0x80 }
  - { offsetInCU: 0x155C2, offset: 0x378BD, size: 0x8, addend: 0x0, symName: __ZNSt3__16vectorINS0_IfNS_9allocatorIfEEEENS1_IS3_EEE6resizeEm, symObjAddr: 0xD40, symBinAddr: 0x10000A910, symSize: 0x80 }
  - { offsetInCU: 0x15608, offset: 0x37903, size: 0x8, addend: 0x0, symName: __ZNSt3__16vectorIfNS_9allocatorIfEEE6resizeEm, symObjAddr: 0xDE0, symBinAddr: 0x10000A990, symSize: 0x80 }
  - { offsetInCU: 0x1564E, offset: 0x37949, size: 0x8, addend: 0x0, symName: __ZNSt3__16vectorINS0_INS0_IfNS_9allocatorIfEEEENS1_IS3_EEEENS1_IS5_EEEixB8ue170006Em, symObjAddr: 0xE60, symBinAddr: 0x10000AA10, symSize: 0x20 }
  - { offsetInCU: 0x15685, offset: 0x37980, size: 0x8, addend: 0x0, symName: __ZNSt3__16vectorIfNS_9allocatorIfEEEixB8ue170006Em, symObjAddr: 0xE80, symBinAddr: 0x10000AA30, symSize: 0x20 }
  - { offsetInCU: 0x156C1, offset: 0x379BC, size: 0x8, addend: 0x0, symName: __ZN9NeuralNet16initializeParamsEv, symObjAddr: 0xFE0, symBinAddr: 0x10000AAA0, symSize: 0x780 }
  - { offsetInCU: 0x1574B, offset: 0x37A46, size: 0x8, addend: 0x0, symName: __ZNSt3__113random_deviceC1B8ue170006Ev, symObjAddr: 0x1760, symBinAddr: 0x10000B220, symSize: 0x70 }
  - { offsetInCU: 0x15799, offset: 0x37A94, size: 0x8, addend: 0x0, symName: __ZNSt3__119normal_distributionIfEC1B8ue170006Eff, symObjAddr: 0x17D0, symBinAddr: 0x10000B290, symSize: 0x30 }
  - { offsetInCU: 0x157E5, offset: 0x37AE0, size: 0x8, addend: 0x0, symName: __ZNSt3__119normal_distributionIfEclB8ue170006INS_13random_deviceEEEfRT_, symObjAddr: 0x1800, symBinAddr: 0x10000B2C0, symSize: 0x30 }
  - { offsetInCU: 0x15822, offset: 0x37B1D, size: 0x8, addend: 0x0, symName: __ZN9NeuralNet10saveParamsENSt3__112basic_stringIcNS0_11char_traitsIcEENS0_9allocatorIcEEEE, symObjAddr: 0x1830, symBinAddr: 0x10000B2F0, symSize: 0x430 }
  - { offsetInCU: 0x158D0, offset: 0x37BCB, size: 0x8, addend: 0x0, symName: __ZNSt3__114basic_ofstreamIcNS_11char_traitsIcEEEC1ERKNS_12basic_stringIcS2_NS_9allocatorIcEEEEj, symObjAddr: 0x1C60, symBinAddr: 0x10000B720, symSize: 0x160 }
  - { offsetInCU: 0x1591A, offset: 0x37C15, size: 0x8, addend: 0x0, symName: __ZNSt3__114basic_ofstreamIcNS_11char_traitsIcEEE5closeEv, symObjAddr: 0x1DF0, symBinAddr: 0x10000B880, symSize: 0x50 }
  - { offsetInCU: 0x15947, offset: 0x37C42, size: 0x8, addend: 0x0, symName: __ZNSt3__114basic_ofstreamIcNS_11char_traitsIcEEED1Ev, symObjAddr: 0x1E40, symBinAddr: 0x10000B8D0, symSize: 0x40 }
  - { offsetInCU: 0x15974, offset: 0x37C6F, size: 0x8, addend: 0x0, symName: __ZN9NeuralNet7feedfwdERNSt3__16vectorIfNS0_9allocatorIfEEEE, symObjAddr: 0x1E80, symBinAddr: 0x10000B910, symSize: 0x230 }
  - { offsetInCU: 0x159FE, offset: 0x37CF9, size: 0x8, addend: 0x0, symName: __ZNSt3__16vectorIfNS_9allocatorIfEEEaSB8ue170006ERKS3_, symObjAddr: 0x20B0, symBinAddr: 0x10000BB40, symSize: 0x60 }
  - { offsetInCU: 0x15A35, offset: 0x37D30, size: 0x8, addend: 0x0, symName: __ZN9NeuralNet10activationEf, symObjAddr: 0x2110, symBinAddr: 0x10000BBA0, symSize: 0xD0 }
  - { offsetInCU: 0x15A6B, offset: 0x37D66, size: 0x8, addend: 0x0, symName: __ZN9NeuralNet13activatefinalERNSt3__16vectorIfNS0_9allocatorIfEEEE, symObjAddr: 0x21E0, symBinAddr: 0x10000BC70, symSize: 0x1F0 }
  - { offsetInCU: 0x15B1F, offset: 0x37E1A, size: 0x8, addend: 0x0, symName: __ZN9NeuralNet6OutputEv, symObjAddr: 0x23D0, symBinAddr: 0x10000BE60, symSize: 0x50 }
  - { offsetInCU: 0x15B46, offset: 0x37E41, size: 0x8, addend: 0x0, symName: __Z3expB8ue170006f, symObjAddr: 0x24B0, symBinAddr: 0x10000BEB0, symSize: 0x20 }
  - { offsetInCU: 0x15B75, offset: 0x37E70, size: 0x8, addend: 0x0, symName: __ZN9NeuralNet16actfn_derivativeEf, symObjAddr: 0x2590, symBinAddr: 0x10000BED0, symSize: 0xD0 }
  - { offsetInCU: 0x15BAB, offset: 0x37EA6, size: 0x8, addend: 0x0, symName: __ZN9NeuralNet8gradcalcERNSt3__16vectorIfNS0_9allocatorIfEEEE, symObjAddr: 0x2660, symBinAddr: 0x10000BFA0, symSize: 0x3B0 }
  - { offsetInCU: 0x15C5B, offset: 0x37F56, size: 0x8, addend: 0x0, symName: __ZN9NeuralNet6costfnERNSt3__16vectorIfNS0_9allocatorIfEEEE, symObjAddr: 0x2A30, symBinAddr: 0x10000C350, symSize: 0x310 }
  - { offsetInCU: 0x15CB0, offset: 0x37FAB, size: 0x8, addend: 0x0, symName: __Z3logB8ue170006f, symObjAddr: 0x2D40, symBinAddr: 0x10000C660, symSize: 0x20 }
  - { offsetInCU: 0x15CDF, offset: 0x37FDA, size: 0x8, addend: 0x0, symName: __ZN9NeuralNet15initializestepsEv, symObjAddr: 0x2D60, symBinAddr: 0x10000C680, symSize: 0xF0 }
  - { offsetInCU: 0x15D44, offset: 0x3803F, size: 0x8, addend: 0x0, symName: __ZNSt3__16vectorIfNS_9allocatorIfEEEC1EmRKf, symObjAddr: 0x2E50, symBinAddr: 0x10000C770, symSize: 0x30 }
  - { offsetInCU: 0x15D8E, offset: 0x38089, size: 0x8, addend: 0x0, symName: __ZNSt3__16vectorIfNS_9allocatorIfEEEaSB8ue170006EOS3_, symObjAddr: 0x2E80, symBinAddr: 0x10000C7A0, symSize: 0x30 }
  - { offsetInCU: 0x15DC5, offset: 0x380C0, size: 0x8, addend: 0x0, symName: __ZN9NeuralNet10addtostepsERNSt3__16vectorIfNS0_9allocatorIfEEEES5_, symObjAddr: 0x2ED0, symBinAddr: 0x10000C7D0, symSize: 0x160 }
  - { offsetInCU: 0x15E66, offset: 0x38161, size: 0x8, addend: 0x0, symName: __ZN9NeuralNet13minibatchdescERNSt3__16vectorINS1_IfNS0_9allocatorIfEEEENS2_IS4_EEEES7_i, symObjAddr: 0x3030, symBinAddr: 0x10000C930, symSize: 0x190 }
  - { offsetInCU: 0x15F07, offset: 0x38202, size: 0x8, addend: 0x0, symName: __ZNSt3__16vectorINS0_INS0_IfNS_9allocatorIfEEEENS1_IS3_EEEENS1_IS5_EEEC2B8ue170006Ev, symObjAddr: 0x31C0, symBinAddr: 0x10000CAC0, symSize: 0x50 }
  - { offsetInCU: 0x15F3D, offset: 0x38238, size: 0x8, addend: 0x0, symName: __ZNSt3__117__compressed_pairIPNS_6vectorINS1_IfNS_9allocatorIfEEEENS2_IS4_EEEENS2_IS6_EEEC1B8ue170006IDnNS_18__default_init_tagEEEOT_OT0_, symObjAddr: 0x3210, symBinAddr: 0x10000CB10, symSize: 0x30 }
  - { offsetInCU: 0x15F95, offset: 0x38290, size: 0x8, addend: 0x0, symName: __ZNSt3__117__compressed_pairIPNS_6vectorINS1_IfNS_9allocatorIfEEEENS2_IS4_EEEENS2_IS6_EEEC2B8ue170006IDnNS_18__default_init_tagEEEOT_OT0_, symObjAddr: 0x3250, symBinAddr: 0x10000CB40, symSize: 0x40 }
  - { offsetInCU: 0x15FED, offset: 0x382E8, size: 0x8, addend: 0x0, symName: __ZNSt3__122__compressed_pair_elemIPNS_6vectorINS1_IfNS_9allocatorIfEEEENS2_IS4_EEEELi0ELb0EEC2B8ue170006IDnvEEOT_, symObjAddr: 0x3290, symBinAddr: 0x10000CB80, symSize: 0x20 }
  - { offsetInCU: 0x1602F, offset: 0x3832A, size: 0x8, addend: 0x0, symName: __ZNSt3__122__compressed_pair_elemINS_9allocatorINS_6vectorINS2_IfNS1_IfEEEENS1_IS4_EEEEEELi1ELb1EEC2B8ue170006ENS_18__default_init_tagE, symObjAddr: 0x32B0, symBinAddr: 0x10000CBA0, symSize: 0x20 }
  - { offsetInCU: 0x16063, offset: 0x3835E, size: 0x8, addend: 0x0, symName: __ZNSt3__19allocatorINS_6vectorINS1_IfNS0_IfEEEENS0_IS3_EEEEEC2B8ue170006Ev, symObjAddr: 0x32D0, symBinAddr: 0x10000CBC0, symSize: 0x20 }
  - { offsetInCU: 0x1608D, offset: 0x38388, size: 0x8, addend: 0x0, symName: __ZNSt3__116__non_trivial_ifILb1ENS_9allocatorINS_6vectorINS2_IfNS1_IfEEEENS1_IS4_EEEEEEEC2B8ue170006Ev, symObjAddr: 0x32F0, symBinAddr: 0x10000CBE0, symSize: 0x10 }
  - { offsetInCU: 0x160B7, offset: 0x383B2, size: 0x8, addend: 0x0, symName: __ZNSt3__16vectorINS0_INS0_IfNS_9allocatorIfEEEENS1_IS3_EEEENS1_IS5_EEE8__appendEm, symObjAddr: 0x35F0, symBinAddr: 0x10000CBF0, symSize: 0x100 }
  - { offsetInCU: 0x16112, offset: 0x3840D, size: 0x8, addend: 0x0, symName: __ZNSt3__16vectorINS0_INS0_IfNS_9allocatorIfEEEENS1_IS3_EEEENS1_IS5_EEE17__destruct_at_endB8ue170006EPS5_, symObjAddr: 0x36F0, symBinAddr: 0x10000CCF0, symSize: 0x50 }
  - { offsetInCU: 0x16156, offset: 0x38451, size: 0x8, addend: 0x0, symName: __ZNSt3__16vectorINS0_INS0_IfNS_9allocatorIfEEEENS1_IS3_EEEENS1_IS5_EEE9__end_capB8ue170006Ev, symObjAddr: 0x3740, symBinAddr: 0x10000CD40, symSize: 0x20 }
  - { offsetInCU: 0x1617C, offset: 0x38477, size: 0x8, addend: 0x0, symName: __ZNSt3__16vectorINS0_INS0_IfNS_9allocatorIfEEEENS1_IS3_EEEENS1_IS5_EEE18__construct_at_endEm, symObjAddr: 0x3760, symBinAddr: 0x10000CD60, symSize: 0xC0 }
  - { offsetInCU: 0x161EE, offset: 0x384E9, size: 0x8, addend: 0x0, symName: __ZNKSt3__16vectorINS0_INS0_IfNS_9allocatorIfEEEENS1_IS3_EEEENS1_IS5_EEE11__recommendB8ue170006Em, symObjAddr: 0x3840, symBinAddr: 0x10000CE20, symSize: 0xA0 }
  - { offsetInCU: 0x16243, offset: 0x3853E, size: 0x8, addend: 0x0, symName: __ZNSt3__114__split_bufferINS_6vectorINS1_IfNS_9allocatorIfEEEENS2_IS4_EEEERNS2_IS6_EEEC1EmmS8_, symObjAddr: 0x38E0, symBinAddr: 0x10000CEC0, symSize: 0x40 }
  - { offsetInCU: 0x16299, offset: 0x38594, size: 0x8, addend: 0x0, symName: __ZNSt3__114__split_bufferINS_6vectorINS1_IfNS_9allocatorIfEEEENS2_IS4_EEEERNS2_IS6_EEE18__construct_at_endEm, symObjAddr: 0x3920, symBinAddr: 0x10000CF00, symSize: 0xB0 }
  - { offsetInCU: 0x162DE, offset: 0x385D9, size: 0x8, addend: 0x0, symName: __ZNSt3__114__split_bufferINS_6vectorINS1_IfNS_9allocatorIfEEEENS2_IS4_EEEERNS2_IS6_EEED1Ev, symObjAddr: 0x3AF0, symBinAddr: 0x10000D0D0, symSize: 0x20 }
  - { offsetInCU: 0x1630A, offset: 0x38605, size: 0x8, addend: 0x0, symName: __ZNSt3__117__compressed_pairIPNS_6vectorINS1_IfNS_9allocatorIfEEEENS2_IS4_EEEENS2_IS6_EEE5firstB8ue170006Ev, symObjAddr: 0x3B10, symBinAddr: 0x10000D0F0, symSize: 0x20 }
  - { offsetInCU: 0x16330, offset: 0x3862B, size: 0x8, addend: 0x0, symName: __ZNSt3__122__compressed_pair_elemIPNS_6vectorINS1_IfNS_9allocatorIfEEEENS2_IS4_EEEELi0ELb0EE5__getB8ue170006Ev, symObjAddr: 0x3B30, symBinAddr: 0x10000D110, symSize: 0x10 }
  - { offsetInCU: 0x16371, offset: 0x3866C, size: 0x8, addend: 0x0, symName: __ZNSt3__16vectorINS0_INS0_IfNS_9allocatorIfEEEENS1_IS3_EEEENS1_IS5_EEE21_ConstructTransactionC1B8ue170006ERS7_m, symObjAddr: 0x3B40, symBinAddr: 0x10000D120, symSize: 0x30 }
  - { offsetInCU: 0x163B9, offset: 0x386B4, size: 0x8, addend: 0x0, symName: __ZNSt3__116allocator_traitsINS_9allocatorINS_6vectorINS2_IfNS1_IfEEEENS1_IS4_EEEEEEE9constructB8ue170006IS6_JEvvEEvRS7_PT_DpOT0_, symObjAddr: 0x3B70, symBinAddr: 0x10000D150, symSize: 0x20 }
  - { offsetInCU: 0x163F8, offset: 0x386F3, size: 0x8, addend: 0x0, symName: __ZNSt3__16vectorINS0_INS0_IfNS_9allocatorIfEEEENS1_IS3_EEEENS1_IS5_EEE21_ConstructTransactionD1B8ue170006Ev, symObjAddr: 0x3BA0, symBinAddr: 0x10000D170, symSize: 0x20 }
  - { offsetInCU: 0x16422, offset: 0x3871D, size: 0x8, addend: 0x0, symName: __ZNSt3__16vectorINS0_INS0_IfNS_9allocatorIfEEEENS1_IS3_EEEENS1_IS5_EEE21_ConstructTransactionC2B8ue170006ERS7_m, symObjAddr: 0x3BC0, symBinAddr: 0x10000D190, symSize: 0x40 }
  - { offsetInCU: 0x1646A, offset: 0x38765, size: 0x8, addend: 0x0, symName: __ZNSt3__16vectorINS0_INS0_IfNS_9allocatorIfEEEENS1_IS3_EEEENS1_IS5_EEE21_ConstructTransactionD2B8ue170006Ev, symObjAddr: 0x3C30, symBinAddr: 0x10000D200, symSize: 0x20 }
  - { offsetInCU: 0x16494, offset: 0x3878F, size: 0x8, addend: 0x0, symName: __ZNKSt3__16vectorINS0_INS0_IfNS_9allocatorIfEEEENS1_IS3_EEEENS1_IS5_EEE8max_sizeEv, symObjAddr: 0x3C80, symBinAddr: 0x10000D220, symSize: 0x60 }
  - { offsetInCU: 0x164BC, offset: 0x387B7, size: 0x8, addend: 0x0, symName: __ZNKSt3__16vectorINS0_INS0_IfNS_9allocatorIfEEEENS1_IS3_EEEENS1_IS5_EEE20__throw_length_errorB8ue170006Ev, symObjAddr: 0x3CE0, symBinAddr: 0x10000D280, symSize: 0x20 }
  - { offsetInCU: 0x164ED, offset: 0x387E8, size: 0x8, addend: 0x0, symName: __ZNSt3__116allocator_traitsINS_9allocatorINS_6vectorINS2_IfNS1_IfEEEENS1_IS4_EEEEEEE8max_sizeB8ue170006IS7_vvEEmRKS7_, symObjAddr: 0x3DA0, symBinAddr: 0x10000D2A0, symSize: 0x30 }
  - { offsetInCU: 0x16518, offset: 0x38813, size: 0x8, addend: 0x0, symName: __ZNKSt3__16vectorINS0_INS0_IfNS_9allocatorIfEEEENS1_IS3_EEEENS1_IS5_EEE7__allocB8ue170006Ev, symObjAddr: 0x3DD0, symBinAddr: 0x10000D2D0, symSize: 0x20 }
  - { offsetInCU: 0x1653E, offset: 0x38839, size: 0x8, addend: 0x0, symName: __ZNKSt3__117__compressed_pairIPNS_6vectorINS1_IfNS_9allocatorIfEEEENS2_IS4_EEEENS2_IS6_EEE6secondB8ue170006Ev, symObjAddr: 0x3EA0, symBinAddr: 0x10000D2F0, symSize: 0x20 }
  - { offsetInCU: 0x16564, offset: 0x3885F, size: 0x8, addend: 0x0, symName: __ZNKSt3__122__compressed_pair_elemINS_9allocatorINS_6vectorINS2_IfNS1_IfEEEENS1_IS4_EEEEEELi1ELb1EE5__getB8ue170006Ev, symObjAddr: 0x3EC0, symBinAddr: 0x10000D310, symSize: 0x10 }
  - { offsetInCU: 0x1658A, offset: 0x38885, size: 0x8, addend: 0x0, symName: __ZNSt3__114__split_bufferINS_6vectorINS1_IfNS_9allocatorIfEEEENS2_IS4_EEEERNS2_IS6_EEEC2EmmS8_, symObjAddr: 0x4060, symBinAddr: 0x10000D320, symSize: 0xC0 }
  - { offsetInCU: 0x165FD, offset: 0x388F8, size: 0x8, addend: 0x0, symName: __ZNSt3__117__compressed_pairIPNS_6vectorINS1_IfNS_9allocatorIfEEEENS2_IS4_EEEERNS2_IS6_EEEC1B8ue170006IDnS9_EEOT_OT0_, symObjAddr: 0x4120, symBinAddr: 0x10000D3E0, symSize: 0x30 }
  - { offsetInCU: 0x16655, offset: 0x38950, size: 0x8, addend: 0x0, symName: __ZNSt3__114__split_bufferINS_6vectorINS1_IfNS_9allocatorIfEEEENS2_IS4_EEEERNS2_IS6_EEE7__allocB8ue170006Ev, symObjAddr: 0x4190, symBinAddr: 0x10000D450, symSize: 0x20 }
  - { offsetInCU: 0x1667B, offset: 0x38976, size: 0x8, addend: 0x0, symName: __ZNSt3__114__split_bufferINS_6vectorINS1_IfNS_9allocatorIfEEEENS2_IS4_EEEERNS2_IS6_EEE9__end_capB8ue170006Ev, symObjAddr: 0x41B0, symBinAddr: 0x10000D470, symSize: 0x20 }
  - { offsetInCU: 0x166A1, offset: 0x3899C, size: 0x8, addend: 0x0, symName: __ZNSt3__117__compressed_pairIPNS_6vectorINS1_IfNS_9allocatorIfEEEENS2_IS4_EEEERNS2_IS6_EEEC2B8ue170006IDnS9_EEOT_OT0_, symObjAddr: 0x41D0, symBinAddr: 0x10000D490, symSize: 0x40 }
  - { offsetInCU: 0x166F9, offset: 0x389F4, size: 0x8, addend: 0x0, symName: __ZNSt3__122__compressed_pair_elemIRNS_9allocatorINS_6vectorINS2_IfNS1_IfEEEENS1_IS4_EEEEEELi1ELb0EEC2B8ue170006IS8_vEEOT_, symObjAddr: 0x4210, symBinAddr: 0x10000D4D0, symSize: 0x20 }
  - { offsetInCU: 0x1673B, offset: 0x38A36, size: 0x8, addend: 0x0, symName: __ZNSt3__19allocatorINS_6vectorINS1_IfNS0_IfEEEENS0_IS3_EEEEE17allocate_at_leastB8ue170006Em, symObjAddr: 0x4270, symBinAddr: 0x10000D530, symSize: 0x40 }
  - { offsetInCU: 0x1676F, offset: 0x38A6A, size: 0x8, addend: 0x0, symName: __ZNSt3__19allocatorINS_6vectorINS1_IfNS0_IfEEEENS0_IS3_EEEEE8allocateB8ue170006Em, symObjAddr: 0x42B0, symBinAddr: 0x10000D570, symSize: 0x50 }
  - { offsetInCU: 0x167A3, offset: 0x38A9E, size: 0x8, addend: 0x0, symName: __ZNSt3__117__compressed_pairIPNS_6vectorINS1_IfNS_9allocatorIfEEEENS2_IS4_EEEERNS2_IS6_EEE6secondB8ue170006Ev, symObjAddr: 0x4410, symBinAddr: 0x10000D5C0, symSize: 0x20 }
  - { offsetInCU: 0x167C9, offset: 0x38AC4, size: 0x8, addend: 0x0, symName: __ZNSt3__122__compressed_pair_elemIRNS_9allocatorINS_6vectorINS2_IfNS1_IfEEEENS1_IS4_EEEEEELi1ELb0EE5__getB8ue170006Ev, symObjAddr: 0x4430, symBinAddr: 0x10000D5E0, symSize: 0x20 }
  - { offsetInCU: 0x167EF, offset: 0x38AEA, size: 0x8, addend: 0x0, symName: __ZNSt3__117__compressed_pairIPNS_6vectorINS1_IfNS_9allocatorIfEEEENS2_IS4_EEEERNS2_IS6_EEE5firstB8ue170006Ev, symObjAddr: 0x4450, symBinAddr: 0x10000D600, symSize: 0x20 }
  - { offsetInCU: 0x1681F, offset: 0x38B1A, size: 0x8, addend: 0x0, symName: __ZNSt3__114__split_bufferINS_6vectorINS1_IfNS_9allocatorIfEEEENS2_IS4_EEEERNS2_IS6_EEE21_ConstructTransactionC1B8ue170006EPPS6_m, symObjAddr: 0x4470, symBinAddr: 0x10000D620, symSize: 0x30 }
  - { offsetInCU: 0x16865, offset: 0x38B60, size: 0x8, addend: 0x0, symName: __ZNSt3__114__split_bufferINS_6vectorINS1_IfNS_9allocatorIfEEEENS2_IS4_EEEERNS2_IS6_EEE21_ConstructTransactionD1B8ue170006Ev, symObjAddr: 0x44A0, symBinAddr: 0x10000D650, symSize: 0x20 }
  - { offsetInCU: 0x1688F, offset: 0x38B8A, size: 0x8, addend: 0x0, symName: __ZNSt3__114__split_bufferINS_6vectorINS1_IfNS_9allocatorIfEEEENS2_IS4_EEEERNS2_IS6_EEE21_ConstructTransactionC2B8ue170006EPPS6_m, symObjAddr: 0x44C0, symBinAddr: 0x10000D670, symSize: 0x40 }
  - { offsetInCU: 0x168D5, offset: 0x38BD0, size: 0x8, addend: 0x0, symName: __ZNSt3__114__split_bufferINS_6vectorINS1_IfNS_9allocatorIfEEEENS2_IS4_EEEERNS2_IS6_EEE21_ConstructTransactionD2B8ue170006Ev, symObjAddr: 0x4500, symBinAddr: 0x10000D6B0, symSize: 0x20 }
  - { offsetInCU: 0x168FF, offset: 0x38BFA, size: 0x8, addend: 0x0, symName: __ZNSt3__116reverse_iteratorIPNS_6vectorINS1_IfNS_9allocatorIfEEEENS2_IS4_EEEEEC1B8ue170006ES7_, symObjAddr: 0x4750, symBinAddr: 0x10000D850, symSize: 0x30 }
  - { offsetInCU: 0x16937, offset: 0x38C32, size: 0x8, addend: 0x0, symName: __ZNKSt3__116reverse_iteratorIPNS_6vectorINS1_IfNS_9allocatorIfEEEENS2_IS4_EEEEE4baseB8ue170006Ev, symObjAddr: 0x4780, symBinAddr: 0x10000D880, symSize: 0x20 }
  - { offsetInCU: 0x1695D, offset: 0x38C58, size: 0x8, addend: 0x0, symName: __ZNKSt3__16vectorINS0_INS0_IfNS_9allocatorIfEEEENS1_IS3_EEEENS1_IS5_EEE14__annotate_newB8ue170006Em, symObjAddr: 0x47E0, symBinAddr: 0x10000D8E0, symSize: 0xA0 }
  - { offsetInCU: 0x16992, offset: 0x38C8D, size: 0x8, addend: 0x0, symName: __ZNSt3__129_AllocatorDestroyRangeReverseINS_9allocatorINS_6vectorINS2_IfNS1_IfEEEENS1_IS4_EEEEEENS_16reverse_iteratorIPS6_EEEC1B8ue170006ERS7_RSA_SD_, symObjAddr: 0x4920, symBinAddr: 0x10000D9E0, symSize: 0x40 }
  - { offsetInCU: 0x169E9, offset: 0x38CE4, size: 0x8, addend: 0x0, symName: __ZNSt3__116allocator_traitsINS_9allocatorINS_6vectorINS2_IfNS1_IfEEEENS1_IS4_EEEEEEE9constructB8ue170006IS6_JS6_EvvEEvRS7_PT_DpOT0_, symObjAddr: 0x49A0, symBinAddr: 0x10000DA60, symSize: 0x30 }
  - { offsetInCU: 0x16A3D, offset: 0x38D38, size: 0x8, addend: 0x0, symName: __ZNKSt3__116reverse_iteratorIPNS_6vectorINS1_IfNS_9allocatorIfEEEENS2_IS4_EEEEEdeB8ue170006Ev, symObjAddr: 0x49F0, symBinAddr: 0x10000DAB0, symSize: 0x30 }
  - { offsetInCU: 0x16A71, offset: 0x38D6C, size: 0x8, addend: 0x0, symName: __ZNSt3__116reverse_iteratorIPNS_6vectorINS1_IfNS_9allocatorIfEEEENS2_IS4_EEEEEppB8ue170006Ev, symObjAddr: 0x4A20, symBinAddr: 0x10000DAE0, symSize: 0x20 }
  - { offsetInCU: 0x16A97, offset: 0x38D92, size: 0x8, addend: 0x0, symName: __ZNSt3__128__exception_guard_exceptionsINS_29_AllocatorDestroyRangeReverseINS_9allocatorINS_6vectorINS3_IfNS2_IfEEEENS2_IS5_EEEEEENS_16reverse_iteratorIPS7_EEEEE10__completeB8ue170006Ev, symObjAddr: 0x4A40, symBinAddr: 0x10000DB00, symSize: 0x20 }
  - { offsetInCU: 0x16ABD, offset: 0x38DB8, size: 0x8, addend: 0x0, symName: __ZNSt3__128__exception_guard_exceptionsINS_29_AllocatorDestroyRangeReverseINS_9allocatorINS_6vectorINS3_IfNS2_IfEEEENS2_IS5_EEEEEENS_16reverse_iteratorIPS7_EEEEED1B8ue170006Ev, symObjAddr: 0x4A60, symBinAddr: 0x10000DB20, symSize: 0x20 }
  - { offsetInCU: 0x16AE7, offset: 0x38DE2, size: 0x8, addend: 0x0, symName: __ZNSt3__128__exception_guard_exceptionsINS_29_AllocatorDestroyRangeReverseINS_9allocatorINS_6vectorINS3_IfNS2_IfEEEENS2_IS5_EEEEEENS_16reverse_iteratorIPS7_EEEEEC1B8ue170006ESC_, symObjAddr: 0x4A80, symBinAddr: 0x10000DB40, symSize: 0x40 }
  - { offsetInCU: 0x16B1F, offset: 0x38E1A, size: 0x8, addend: 0x0, symName: __ZNSt3__128__exception_guard_exceptionsINS_29_AllocatorDestroyRangeReverseINS_9allocatorINS_6vectorINS3_IfNS2_IfEEEENS2_IS5_EEEEEENS_16reverse_iteratorIPS7_EEEEEC2B8ue170006ESC_, symObjAddr: 0x4AC0, symBinAddr: 0x10000DB80, symSize: 0x30 }
  - { offsetInCU: 0x16B57, offset: 0x38E52, size: 0x8, addend: 0x0, symName: __ZNSt3__129_AllocatorDestroyRangeReverseINS_9allocatorINS_6vectorINS2_IfNS1_IfEEEENS1_IS4_EEEEEENS_16reverse_iteratorIPS6_EEEC2B8ue170006ERS7_RSA_SD_, symObjAddr: 0x4AF0, symBinAddr: 0x10000DBB0, symSize: 0x40 }
  - { offsetInCU: 0x16BAE, offset: 0x38EA9, size: 0x8, addend: 0x0, symName: __ZNSt3__16vectorINS0_IfNS_9allocatorIfEEEENS1_IS3_EEEC1B8ue170006EOS5_, symObjAddr: 0x4B70, symBinAddr: 0x10000DC30, symSize: 0x30 }
  - { offsetInCU: 0x16BE9, offset: 0x38EE4, size: 0x8, addend: 0x0, symName: __ZNSt3__16vectorINS0_IfNS_9allocatorIfEEEENS1_IS3_EEEC2B8ue170006EOS5_, symObjAddr: 0x4BA0, symBinAddr: 0x10000DC60, symSize: 0xD0 }
  - { offsetInCU: 0x16C2A, offset: 0x38F25, size: 0x8, addend: 0x0, symName: __ZNSt3__117__compressed_pairIPNS_6vectorIfNS_9allocatorIfEEEENS2_IS4_EEEC1B8ue170006IDnS6_EEOT_OT0_, symObjAddr: 0x4C90, symBinAddr: 0x10000DD30, symSize: 0x30 }
  - { offsetInCU: 0x16C82, offset: 0x38F7D, size: 0x8, addend: 0x0, symName: __ZNSt3__117__compressed_pairIPNS_6vectorIfNS_9allocatorIfEEEENS2_IS4_EEEC2B8ue170006IDnS6_EEOT_OT0_, symObjAddr: 0x4D10, symBinAddr: 0x10000DD60, symSize: 0x40 }
  - { offsetInCU: 0x16CDA, offset: 0x38FD5, size: 0x8, addend: 0x0, symName: __ZNSt3__122__compressed_pair_elemINS_9allocatorINS_6vectorIfNS1_IfEEEEEELi1ELb1EEC2B8ue170006IS5_vEEOT_, symObjAddr: 0x4D50, symBinAddr: 0x10000DDA0, symSize: 0x10 }
  - { offsetInCU: 0x16D22, offset: 0x3901D, size: 0x8, addend: 0x0, symName: __ZNSt3__119__to_address_helperINS_16reverse_iteratorIPNS_6vectorINS2_IfNS_9allocatorIfEEEENS3_IS5_EEEEEEvE6__callB8ue170006ERKS9_, symObjAddr: 0x4D90, symBinAddr: 0x10000DDB0, symSize: 0x40 }
  - { offsetInCU: 0x16D45, offset: 0x39040, size: 0x8, addend: 0x0, symName: __ZNKSt3__116reverse_iteratorIPNS_6vectorINS1_IfNS_9allocatorIfEEEENS2_IS4_EEEEEptB8ue170006Ev, symObjAddr: 0x4DD0, symBinAddr: 0x10000DDF0, symSize: 0x30 }
  - { offsetInCU: 0x16D6B, offset: 0x39066, size: 0x8, addend: 0x0, symName: __ZNSt3__128__exception_guard_exceptionsINS_29_AllocatorDestroyRangeReverseINS_9allocatorINS_6vectorINS3_IfNS2_IfEEEENS2_IS5_EEEEEENS_16reverse_iteratorIPS7_EEEEED2B8ue170006Ev, symObjAddr: 0x4E90, symBinAddr: 0x10000DEA0, symSize: 0x40 }
  - { offsetInCU: 0x16D95, offset: 0x39090, size: 0x8, addend: 0x0, symName: __ZNKSt3__129_AllocatorDestroyRangeReverseINS_9allocatorINS_6vectorINS2_IfNS1_IfEEEENS1_IS4_EEEEEENS_16reverse_iteratorIPS6_EEEclB8ue170006Ev, symObjAddr: 0x4ED0, symBinAddr: 0x10000DEE0, symSize: 0xF0 }
  - { offsetInCU: 0x16DBC, offset: 0x390B7, size: 0x8, addend: 0x0, symName: __ZNSt3__116reverse_iteratorINS0_IPNS_6vectorINS1_IfNS_9allocatorIfEEEENS2_IS4_EEEEEEEC1B8ue170006ES8_, symObjAddr: 0x5030, symBinAddr: 0x10000E040, symSize: 0x30 }
  - { offsetInCU: 0x16DF4, offset: 0x390EF, size: 0x8, addend: 0x0, symName: __ZNSt3__116reverse_iteratorINS0_IPNS_6vectorINS1_IfNS_9allocatorIfEEEENS2_IS4_EEEEEEEppB8ue170006Ev, symObjAddr: 0x50F0, symBinAddr: 0x10000E0E0, symSize: 0x30 }
  - { offsetInCU: 0x16E1A, offset: 0x39115, size: 0x8, addend: 0x0, symName: __ZNKSt3__116reverse_iteratorINS0_IPNS_6vectorINS1_IfNS_9allocatorIfEEEENS2_IS4_EEEEEEE4baseB8ue170006Ev, symObjAddr: 0x5120, symBinAddr: 0x10000E110, symSize: 0x20 }
  - { offsetInCU: 0x16E46, offset: 0x39141, size: 0x8, addend: 0x0, symName: __ZNSt3__119__to_address_helperINS_16reverse_iteratorINS1_IPNS_6vectorINS2_IfNS_9allocatorIfEEEENS3_IS5_EEEEEEEEvE6__callB8ue170006ERKSA_, symObjAddr: 0x56C0, symBinAddr: 0x10000E130, symSize: 0x40 }
  - { offsetInCU: 0x16E69, offset: 0x39164, size: 0x8, addend: 0x0, symName: __ZNKSt3__116reverse_iteratorINS0_IPNS_6vectorINS1_IfNS_9allocatorIfEEEENS2_IS4_EEEEEEEptB8ue170006Ev, symObjAddr: 0x5700, symBinAddr: 0x10000E170, symSize: 0x50 }
  - { offsetInCU: 0x16E8F, offset: 0x3918A, size: 0x8, addend: 0x0, symName: __ZNSt3__116reverse_iteratorIPNS_6vectorINS1_IfNS_9allocatorIfEEEENS2_IS4_EEEEEpLB8ue170006El, symObjAddr: 0x57F0, symBinAddr: 0x10000E260, symSize: 0x30 }
  - { offsetInCU: 0x16EC3, offset: 0x391BE, size: 0x8, addend: 0x0, symName: __ZNSt3__116reverse_iteratorIPNS_6vectorINS1_IfNS_9allocatorIfEEEENS2_IS4_EEEEEmmB8ue170006Ev, symObjAddr: 0x5820, symBinAddr: 0x10000E290, symSize: 0x20 }
  - { offsetInCU: 0x16EE9, offset: 0x391E4, size: 0x8, addend: 0x0, symName: __ZNSt3__116reverse_iteratorINS0_IPNS_6vectorINS1_IfNS_9allocatorIfEEEENS2_IS4_EEEEEEEC2B8ue170006ES8_, symObjAddr: 0x5840, symBinAddr: 0x10000E2B0, symSize: 0x40 }
  - { offsetInCU: 0x16F21, offset: 0x3921C, size: 0x8, addend: 0x0, symName: __ZNSt3__116reverse_iteratorIPNS_6vectorINS1_IfNS_9allocatorIfEEEENS2_IS4_EEEEEC2B8ue170006ES7_, symObjAddr: 0x5880, symBinAddr: 0x10000E2F0, symSize: 0x30 }
  - { offsetInCU: 0x16F59, offset: 0x39254, size: 0x8, addend: 0x0, symName: __ZNSt3__114__split_bufferINS_6vectorINS1_IfNS_9allocatorIfEEEENS2_IS4_EEEERNS2_IS6_EEED2Ev, symObjAddr: 0x58B0, symBinAddr: 0x10000E320, symSize: 0x70 }
  - { offsetInCU: 0x16F85, offset: 0x39280, size: 0x8, addend: 0x0, symName: __ZNSt3__114__split_bufferINS_6vectorINS1_IfNS_9allocatorIfEEEENS2_IS4_EEEERNS2_IS6_EEE5clearB8ue170006Ev, symObjAddr: 0x5920, symBinAddr: 0x10000E390, symSize: 0x20 }
  - { offsetInCU: 0x16FAB, offset: 0x392A6, size: 0x8, addend: 0x0, symName: __ZNKSt3__114__split_bufferINS_6vectorINS1_IfNS_9allocatorIfEEEENS2_IS4_EEEERNS2_IS6_EEE8capacityB8ue170006Ev, symObjAddr: 0x5970, symBinAddr: 0x10000E3B0, symSize: 0x40 }
  - { offsetInCU: 0x16FD1, offset: 0x392CC, size: 0x8, addend: 0x0, symName: __ZNSt3__114__split_bufferINS_6vectorINS1_IfNS_9allocatorIfEEEENS2_IS4_EEEERNS2_IS6_EEE17__destruct_at_endB8ue170006EPS6_, symObjAddr: 0x59B0, symBinAddr: 0x10000E3F0, symSize: 0x30 }
  - { offsetInCU: 0x17005, offset: 0x39300, size: 0x8, addend: 0x0, symName: __ZNSt3__114__split_bufferINS_6vectorINS1_IfNS_9allocatorIfEEEENS2_IS4_EEEERNS2_IS6_EEE17__destruct_at_endB8ue170006EPS6_NS_17integral_constantIbLb0EEE, symObjAddr: 0x59E0, symBinAddr: 0x10000E420, symSize: 0x80 }
  - { offsetInCU: 0x17045, offset: 0x39340, size: 0x8, addend: 0x0, symName: __ZNKSt3__114__split_bufferINS_6vectorINS1_IfNS_9allocatorIfEEEENS2_IS4_EEEERNS2_IS6_EEE9__end_capB8ue170006Ev, symObjAddr: 0x5AB0, symBinAddr: 0x10000E4A0, symSize: 0x20 }
  - { offsetInCU: 0x1706B, offset: 0x39366, size: 0x8, addend: 0x0, symName: __ZNKSt3__117__compressed_pairIPNS_6vectorINS1_IfNS_9allocatorIfEEEENS2_IS4_EEEERNS2_IS6_EEE5firstB8ue170006Ev, symObjAddr: 0x5AD0, symBinAddr: 0x10000E4C0, symSize: 0x20 }
  - { offsetInCU: 0x17091, offset: 0x3938C, size: 0x8, addend: 0x0, symName: __ZNKSt3__16vectorINS0_INS0_IfNS_9allocatorIfEEEENS1_IS3_EEEENS1_IS5_EEE17__annotate_shrinkB8ue170006Em, symObjAddr: 0x5B70, symBinAddr: 0x10000E4E0, symSize: 0xA0 }
  - { offsetInCU: 0x170C6, offset: 0x393C1, size: 0x8, addend: 0x0, symName: __ZNSt3__16vectorINS0_IfNS_9allocatorIfEEEENS1_IS3_EEE8__appendEm, symObjAddr: 0x5C10, symBinAddr: 0x10000E580, symSize: 0x100 }
  - { offsetInCU: 0x17121, offset: 0x3941C, size: 0x8, addend: 0x0, symName: __ZNSt3__16vectorINS0_IfNS_9allocatorIfEEEENS1_IS3_EEE17__destruct_at_endB8ue170006EPS3_, symObjAddr: 0x5D10, symBinAddr: 0x10000E680, symSize: 0x50 }
  - { offsetInCU: 0x17165, offset: 0x39460, size: 0x8, addend: 0x0, symName: __ZNSt3__16vectorINS0_IfNS_9allocatorIfEEEENS1_IS3_EEE18__construct_at_endEm, symObjAddr: 0x5D60, symBinAddr: 0x10000E6D0, symSize: 0xC0 }
  - { offsetInCU: 0x171D7, offset: 0x394D2, size: 0x8, addend: 0x0, symName: __ZNSt3__114__split_bufferINS_6vectorIfNS_9allocatorIfEEEERNS2_IS4_EEE18__construct_at_endEm, symObjAddr: 0x5F00, symBinAddr: 0x10000E790, symSize: 0xB0 }
  - { offsetInCU: 0x17237, offset: 0x39532, size: 0x8, addend: 0x0, symName: __ZNSt3__116allocator_traitsINS_9allocatorINS_6vectorIfNS1_IfEEEEEEE9constructB8ue170006IS4_JEvvEEvRS5_PT_DpOT0_, symObjAddr: 0x6120, symBinAddr: 0x10000E840, symSize: 0x20 }
  - { offsetInCU: 0x1728B, offset: 0x39586, size: 0x8, addend: 0x0, symName: __ZNSt3__114__split_bufferINS_6vectorIfNS_9allocatorIfEEEERNS2_IS4_EEE21_ConstructTransactionC1B8ue170006EPPS4_m, symObjAddr: 0x6740, symBinAddr: 0x10000E890, symSize: 0x30 }
  - { offsetInCU: 0x172D1, offset: 0x395CC, size: 0x8, addend: 0x0, symName: __ZNSt3__114__split_bufferINS_6vectorIfNS_9allocatorIfEEEERNS2_IS4_EEE21_ConstructTransactionD1B8ue170006Ev, symObjAddr: 0x6770, symBinAddr: 0x10000E8C0, symSize: 0x20 }
  - { offsetInCU: 0x172FB, offset: 0x395F6, size: 0x8, addend: 0x0, symName: __ZNSt3__114__split_bufferINS_6vectorIfNS_9allocatorIfEEEERNS2_IS4_EEE21_ConstructTransactionC2B8ue170006EPPS4_m, symObjAddr: 0x6790, symBinAddr: 0x10000E8E0, symSize: 0x40 }
  - { offsetInCU: 0x17341, offset: 0x3963C, size: 0x8, addend: 0x0, symName: __ZNSt3__114__split_bufferINS_6vectorIfNS_9allocatorIfEEEERNS2_IS4_EEE21_ConstructTransactionD2B8ue170006Ev, symObjAddr: 0x67D0, symBinAddr: 0x10000E920, symSize: 0x20 }
  - { offsetInCU: 0x1736B, offset: 0x39666, size: 0x8, addend: 0x0, symName: __ZNKSt3__16vectorINS0_IfNS_9allocatorIfEEEENS1_IS3_EEE17__annotate_shrinkB8ue170006Em, symObjAddr: 0x76A0, symBinAddr: 0x10000E940, symSize: 0xA0 }
  - { offsetInCU: 0x173A0, offset: 0x3969B, size: 0x8, addend: 0x0, symName: __ZNSt3__16vectorIfNS_9allocatorIfEEE8__appendEm, symObjAddr: 0x7740, symBinAddr: 0x10000E9E0, symSize: 0x100 }
  - { offsetInCU: 0x173FB, offset: 0x396F6, size: 0x8, addend: 0x0, symName: __ZNSt3__16vectorIfNS_9allocatorIfEEE17__destruct_at_endB8ue170006EPf, symObjAddr: 0x7840, symBinAddr: 0x10000EAE0, symSize: 0x50 }
  - { offsetInCU: 0x1743F, offset: 0x3973A, size: 0x8, addend: 0x0, symName: __ZNSt3__16vectorIfNS_9allocatorIfEEE18__construct_at_endEm, symObjAddr: 0x7890, symBinAddr: 0x10000EB30, symSize: 0xC0 }
  - { offsetInCU: 0x174B1, offset: 0x397AC, size: 0x8, addend: 0x0, symName: __ZNSt3__114__split_bufferIfRNS_9allocatorIfEEE18__construct_at_endEm, symObjAddr: 0x7A30, symBinAddr: 0x10000EBF0, symSize: 0xB0 }
  - { offsetInCU: 0x17511, offset: 0x3980C, size: 0x8, addend: 0x0, symName: __ZNSt3__116allocator_traitsINS_9allocatorIfEEE9constructB8ue170006IfJEvvEEvRS2_PT_DpOT0_, symObjAddr: 0x7C50, symBinAddr: 0x10000ECA0, symSize: 0x20 }
  - { offsetInCU: 0x17565, offset: 0x39860, size: 0x8, addend: 0x0, symName: __ZNSt3__114__split_bufferIfRNS_9allocatorIfEEE21_ConstructTransactionC1B8ue170006EPPfm, symObjAddr: 0x81A0, symBinAddr: 0x10000ECE0, symSize: 0x30 }
  - { offsetInCU: 0x175AB, offset: 0x398A6, size: 0x8, addend: 0x0, symName: __ZNSt3__114__split_bufferIfRNS_9allocatorIfEEE21_ConstructTransactionD1B8ue170006Ev, symObjAddr: 0x81D0, symBinAddr: 0x10000ED10, symSize: 0x20 }
  - { offsetInCU: 0x175D5, offset: 0x398D0, size: 0x8, addend: 0x0, symName: __ZNSt3__114__split_bufferIfRNS_9allocatorIfEEE21_ConstructTransactionC2B8ue170006EPPfm, symObjAddr: 0x81F0, symBinAddr: 0x10000ED30, symSize: 0x40 }
  - { offsetInCU: 0x1761B, offset: 0x39916, size: 0x8, addend: 0x0, symName: __ZNSt3__114__split_bufferIfRNS_9allocatorIfEEE21_ConstructTransactionD2B8ue170006Ev, symObjAddr: 0x8230, symBinAddr: 0x10000ED70, symSize: 0x20 }
  - { offsetInCU: 0x17645, offset: 0x39940, size: 0x8, addend: 0x0, symName: __ZNKSt3__16vectorIfNS_9allocatorIfEEE17__annotate_shrinkB8ue170006Em, symObjAddr: 0x9070, symBinAddr: 0x10000ED90, symSize: 0xA0 }
  - { offsetInCU: 0x1767F, offset: 0x3997A, size: 0x8, addend: 0x0, symName: __ZNSt3__114basic_ofstreamIcNS_11char_traitsIcEEED2Ev, symObjAddr: 0x9260, symBinAddr: 0x10000EE30, symSize: 0x60 }
  - { offsetInCU: 0x176B9, offset: 0x399B4, size: 0x8, addend: 0x0, symName: __ZTv0_n24_NSt3__114basic_ofstreamIcNS_11char_traitsIcEEED1Ev, symObjAddr: 0x92C0, symBinAddr: 0x10000EE90, symSize: 0x20 }
  - { offsetInCU: 0x176D0, offset: 0x399CB, size: 0x8, addend: 0x0, symName: __ZNSt3__16vectorIfNS_9allocatorIfEEE19__copy_assign_allocB8ue170006ERKS3_, symObjAddr: 0x92E0, symBinAddr: 0x10000EEB0, symSize: 0x30 }
  - { offsetInCU: 0x17705, offset: 0x39A00, size: 0x8, addend: 0x0, symName: __ZNSt3__16vectorIfNS_9allocatorIfEEE6assignIPfLi0EEEvT_S6_, symObjAddr: 0x9310, symBinAddr: 0x10000EEE0, symSize: 0x60 }
  - { offsetInCU: 0x1775A, offset: 0x39A55, size: 0x8, addend: 0x0, symName: __ZNSt3__16vectorIfNS_9allocatorIfEEE19__copy_assign_allocB8ue170006ERKS3_NS_17integral_constantIbLb0EEE, symObjAddr: 0x9370, symBinAddr: 0x10000EF40, symSize: 0x10 }
  - { offsetInCU: 0x17796, offset: 0x39A91, size: 0x8, addend: 0x0, symName: __ZNSt3__16vectorIfNS_9allocatorIfEEE18__assign_with_sizeB8ue170006IPfS5_EEvT_T0_l, symObjAddr: 0x9380, symBinAddr: 0x10000EF50, symSize: 0x160 }
  - { offsetInCU: 0x17846, offset: 0x39B41, size: 0x8, addend: 0x0, symName: __ZNSt3__16vectorIfNS_9allocatorIfEEE13__vdeallocateEv, symObjAddr: 0x9650, symBinAddr: 0x10000F110, symSize: 0x90 }
  - { offsetInCU: 0x1786E, offset: 0x39B69, size: 0x8, addend: 0x0, symName: __ZNSt3__16vectorIfNS_9allocatorIfEEE5clearB8ue170006Ev, symObjAddr: 0x9D50, symBinAddr: 0x10000F1F0, symSize: 0x40 }
  - { offsetInCU: 0x178A9, offset: 0x39BA4, size: 0x8, addend: 0x0, symName: __ZNSt3__16vectorIfNS_9allocatorIfEEEC2EmRKf, symObjAddr: 0xA8A0, symBinAddr: 0x10000F250, symSize: 0xE0 }
  - { offsetInCU: 0x17908, offset: 0x39C03, size: 0x8, addend: 0x0, symName: __ZNSt3__16vectorIfNS_9allocatorIfEEE18__construct_at_endEmRKf, symObjAddr: 0xA980, symBinAddr: 0x10000F330, symSize: 0xC0 }
  - { offsetInCU: 0x17989, offset: 0x39C84, size: 0x8, addend: 0x0, symName: __ZNSt3__116allocator_traitsINS_9allocatorIfEEE9constructB8ue170006IfJRKfEvvEEvRS2_PT_DpOT0_, symObjAddr: 0xAA40, symBinAddr: 0x10000F3F0, symSize: 0x30 }
  - { offsetInCU: 0x179DD, offset: 0x39CD8, size: 0x8, addend: 0x0, symName: __ZNSt3__16vectorIfNS_9allocatorIfEEE13__move_assignERS3_NS_17integral_constantIbLb1EEE, symObjAddr: 0xAAA0, symBinAddr: 0x10000F450, symSize: 0xA0 }
  - { offsetInCU: 0x17A1F, offset: 0x39D1A, size: 0x8, addend: 0x0, symName: __ZNSt3__16vectorIfNS_9allocatorIfEEE19__move_assign_allocB8ue170006ERS3_, symObjAddr: 0xAB40, symBinAddr: 0x10000F4F0, symSize: 0x30 }
  - { offsetInCU: 0x17A54, offset: 0x39D4F, size: 0x8, addend: 0x0, symName: __ZNSt3__16vectorIfNS_9allocatorIfEEE19__move_assign_allocB8ue170006ERS3_NS_17integral_constantIbLb1EEE, symObjAddr: 0xAB70, symBinAddr: 0x10000F520, symSize: 0x30 }
  - { offsetInCU: 0x17A94, offset: 0x39D8F, size: 0x8, addend: 0x0, symName: __ZNSt3__113basic_filebufIcNS_11char_traitsIcEEE4openERKNS_12basic_stringIcS2_NS_9allocatorIcEEEEj, symObjAddr: 0xAC70, symBinAddr: 0x10000F550, symSize: 0x40 }
  - { offsetInCU: 0x17AD8, offset: 0x39DD3, size: 0x8, addend: 0x0, symName: __ZNKSt3__112basic_stringIcNS_11char_traitsIcEENS_9allocatorIcEEE5c_strB8ue170006Ev, symObjAddr: 0xAD60, symBinAddr: 0x10000F590, symSize: 0x20 }
  - { offsetInCU: 0x17B1F, offset: 0x39E1A, size: 0x8, addend: 0x0, symName: __ZNSt3__115basic_streambufIcNS_11char_traitsIcEEE5sgetcB8ue170006Ev, symObjAddr: 0xAF60, symBinAddr: 0x10000F5B0, symSize: 0x50 }
  - { offsetInCU: 0x17B4A, offset: 0x39E45, size: 0x8, addend: 0x0, symName: __ZNKSt3__15ctypeIcE2isB8ue170006Ejc, symObjAddr: 0xAFE0, symBinAddr: 0x10000F600, symSize: 0x70 }
  - { offsetInCU: 0x17B8D, offset: 0x39E88, size: 0x8, addend: 0x0, symName: __Z7isasciii, symObjAddr: 0xB2F0, symBinAddr: 0x10000F670, symSize: 0x20 }
  - { offsetInCU: 0x17BDB, offset: 0x39ED6, size: 0x8, addend: 0x0, symName: __ZNSt3__119normal_distributionIfEC2B8ue170006Eff, symObjAddr: 0xBA80, symBinAddr: 0x10000F690, symSize: 0x40 }
  - { offsetInCU: 0x17C21, offset: 0x39F1C, size: 0x8, addend: 0x0, symName: __ZNSt3__119normal_distributionIfE10param_typeC1B8ue170006Eff, symObjAddr: 0xBAC0, symBinAddr: 0x10000F6D0, symSize: 0x30 }
  - { offsetInCU: 0x17C67, offset: 0x39F62, size: 0x8, addend: 0x0, symName: __ZNSt3__119normal_distributionIfE10param_typeC2B8ue170006Eff, symObjAddr: 0xBAF0, symBinAddr: 0x10000F700, symSize: 0x30 }
  - { offsetInCU: 0x17CAD, offset: 0x39FA8, size: 0x8, addend: 0x0, symName: __ZNSt3__119normal_distributionIfEclINS_13random_deviceEEEfRT_RKNS1_10param_typeE, symObjAddr: 0xBB20, symBinAddr: 0x10000F730, symSize: 0x170 }
  - { offsetInCU: 0x17D7F, offset: 0x3A07A, size: 0x8, addend: 0x0, symName: __ZNSt3__125uniform_real_distributionIfEC1B8ue170006Eff, symObjAddr: 0xBC90, symBinAddr: 0x10000F8A0, symSize: 0x30 }
  - { offsetInCU: 0x17DC5, offset: 0x3A0C0, size: 0x8, addend: 0x0, symName: __ZNSt3__125uniform_real_distributionIfEclB8ue170006INS_13random_deviceEEEfRT_, symObjAddr: 0xBCC0, symBinAddr: 0x10000F8D0, symSize: 0x30 }
  - { offsetInCU: 0x17E01, offset: 0x3A0FC, size: 0x8, addend: 0x0, symName: __Z4sqrtB8ue170006f, symObjAddr: 0xBCF0, symBinAddr: 0x10000F900, symSize: 0x20 }
  - { offsetInCU: 0x17E30, offset: 0x3A12B, size: 0x8, addend: 0x0, symName: __ZNKSt3__119normal_distributionIfE10param_type6stddevB8ue170006Ev, symObjAddr: 0xBD10, symBinAddr: 0x10000F920, symSize: 0x20 }
  - { offsetInCU: 0x17E56, offset: 0x3A151, size: 0x8, addend: 0x0, symName: __ZNKSt3__119normal_distributionIfE10param_type4meanB8ue170006Ev, symObjAddr: 0xBD30, symBinAddr: 0x10000F940, symSize: 0x20 }
  - { offsetInCU: 0x17E7C, offset: 0x3A177, size: 0x8, addend: 0x0, symName: __ZNSt3__125uniform_real_distributionIfEC2B8ue170006Eff, symObjAddr: 0xBD50, symBinAddr: 0x10000F960, symSize: 0x30 }
  - { offsetInCU: 0x17EC2, offset: 0x3A1BD, size: 0x8, addend: 0x0, symName: __ZNSt3__125uniform_real_distributionIfE10param_typeC1B8ue170006Eff, symObjAddr: 0xBD80, symBinAddr: 0x10000F990, symSize: 0x30 }
  - { offsetInCU: 0x17F08, offset: 0x3A203, size: 0x8, addend: 0x0, symName: __ZNSt3__125uniform_real_distributionIfE10param_typeC2B8ue170006Eff, symObjAddr: 0xBDB0, symBinAddr: 0x10000F9C0, symSize: 0x30 }
  - { offsetInCU: 0x17F4E, offset: 0x3A249, size: 0x8, addend: 0x0, symName: __ZNSt3__125uniform_real_distributionIfEclINS_13random_deviceEEEfRT_RKNS1_10param_typeE, symObjAddr: 0xBDE0, symBinAddr: 0x10000F9F0, symSize: 0x70 }
  - { offsetInCU: 0x17F9A, offset: 0x3A295, size: 0x8, addend: 0x0, symName: __ZNKSt3__125uniform_real_distributionIfE10param_type1bB8ue170006Ev, symObjAddr: 0xBE50, symBinAddr: 0x10000FA60, symSize: 0x20 }
  - { offsetInCU: 0x17FC0, offset: 0x3A2BB, size: 0x8, addend: 0x0, symName: __ZNKSt3__125uniform_real_distributionIfE10param_type1aB8ue170006Ev, symObjAddr: 0xBE70, symBinAddr: 0x10000FA80, symSize: 0x20 }
  - { offsetInCU: 0x17FE6, offset: 0x3A2E1, size: 0x8, addend: 0x0, symName: __ZNSt3__113random_device3maxB8ue170006Ev, symObjAddr: 0xBF90, symBinAddr: 0x10000FBA0, symSize: 0x10 }
  - { offsetInCU: 0x17FFA, offset: 0x3A2F5, size: 0x8, addend: 0x0, symName: __ZNSt3__113random_device3minB8ue170006Ev, symObjAddr: 0xBFA0, symBinAddr: 0x10000FBB0, symSize: 0x10 }
  - { offsetInCU: 0x1800E, offset: 0x3A309, size: 0x8, addend: 0x0, symName: __ZNSt3__113basic_ostreamIcNS_11char_traitsIcEEEC2B8ue170006EPNS_15basic_streambufIcS2_EE, symObjAddr: 0xBFB0, symBinAddr: 0x10000FBC0, symSize: 0x47 }
...
